(dp1
S'program_type_id'
p2
(dp3
S'length'
p4
I512
sS'unique'
p5
I00
sS'sortable'
p6
I3
sS'sql'
p7
S'INTEGER REFERENCES program_types (id) ON DELETE CASCADE'
p8
sS'notnull'
p9
I00
sS'type'
p10
S'reference program_types'
p11
ssS'id'
p12
(dp13
g4
I512
sg5
I00
sg6
I1
sg7
S'INTEGER PRIMARY KEY AUTOINCREMENT'
p14
sg9
I00
sg10
S'id'
p15
ssS'agency_id'
p16
(dp17
g4
I512
sg5
I00
sg6
I2
sg7
S'INTEGER REFERENCES agencies (id) ON DELETE CASCADE'
p18
sg9
I00
sg10
S'reference agencies'
p19
ss.