(dp1
S'id'
p2
(dp3
S'length'
p4
I512
sS'unique'
p5
I00
sS'sortable'
p6
I1
sS'sql'
p7
S'SERIAL PRIMARY KEY'
p8
sS'notnull'
p9
I00
sS'type'
p10
g2
ssS'agency_id'
p11
(dp12
g4
I512
sg5
I00
sg6
I2
sg7
S'INTEGER REFERENCES agencies (id) ON DELETE CASCADE'
p13
sg9
I00
sg10
S'references agencies'
p14
ssS'location'
p15
(dp16
g4
I512
sg5
I00
sg6
I3
sg7
S"SELECT AddGeometryColumn ('', 'geolocation', 'location', 4326, 'GEOMETRY', 2);"
p17
sg9
I00
sg10
S'geometry()'
p18
ss.