(dp1
S'output'
p2
S"<type 'exceptions.ValueError'> need more than 1 value to unpack"
p3
sS'layer'
p4
S'/home/www-data/web2py/applications/childcare/controllers/dataadmin.py'
p5
sS'code'
p6
S'import os\nimport csv\nimport json\nimport re\n\ndef index():\n    cols = []\n    form = SQLFORM(db.files)\n\n    if form.process().accepted:\n        response.flash = \'Your file was uploaded successfully. Proceeding to add data to database...\'\n        path = os.path.join(request.folder,\'uploads\', form.vars.file)\n\n        with open(path, \'r\') as fh:\n            data = csv.reader(fh, delimiter=\',\', quotechar=\'"\')\n            for row in data:\n                if not cols:\n                    cols = row\n                else:\n                    \n                    facility_type = db.facility_types(name=row[2])\n                    ftid = facility_type.id\n\n                    if not ftid:\n                        ftid = db.facility_types.insert(name=row[2])\n\n                    ages = {}\n                    if row[8] != \'\':    \n                        ages = minMaxAges(row[8]);\n                    else:\n                        ages = {\'min\':0, \'max\':0}\n\n                    compliant = 1\n                    if row[12] == \'No\':\n                        compliant = 0\n                    \n                    agency_test = db.agencies(name=row[1])\n                    \n                    if not agency_test:\n                        db.agencies.insert( childcare_provider_id = row[0], \n                                            name = row[1],\n                                            facility_type_id = ftid,\n                                            street = row[3],\n                                            county = row[4],\n                                            email  = row[6],\n                                            min_age = ages[\'min\'],\n                                            max_age = ages[\'max\'],\n                                            capacity = row[9] if row[9].strip() >= 0 else 0,\n                                            annual_inspection_date = row[10].strip(),\n                                            #unannounced_inspection_date = row[11].strip(),\n                                            #    in_compliance = True\n                                            \n                                            \n                                            )               \n                    \n    return dict(form=form)\n\n\ndef minMaxAges(ages_string):\n    pattern = re.compile(\'to\')\n    minmax = []\n\n    if pattern.search(ages_string):\n        minmax = ages_string.split(\'to\')\n    else: \n        minmax = ages_string.split(\'-\')\n    \n    return dict(min = ageFor(minmax[0]), \n                max = ageFor(minmax[1])\n                )\n\ndef ageFor(age_string):\n    ageType = age_string.strip().split()\n    if not ageType[0]:\n        return 0\n    else:\n        return int(ageType[0]) * 12 if ageType[1] == \'years\' else ageType[0]\n\nresponse._vars=response._caller(index)\n'
p7
sS'snapshot'
p8
(dp9
S'exception'
p10
(dp11
S'__hash__'
p12
S"<method-wrapper '__hash__' of exceptions.ValueError object>"
p13
sS'__setattr__'
p14
S"<method-wrapper '__setattr__' of exceptions.ValueError object>"
p15
sS'__reduce_ex__'
p16
S'<built-in method __reduce_ex__ of exceptions.ValueError object>'
p17
sS'__getslice__'
p18
S"<method-wrapper '__getslice__' of exceptions.ValueError object>"
p19
sS'__getitem__'
p20
S"<method-wrapper '__getitem__' of exceptions.ValueError object>"
p21
sS'__setstate__'
p22
S'<built-in method __setstate__ of exceptions.ValueError object>'
p23
sS'args'
p24
S"('need more than 1 value to unpack',)"
p25
sS'__reduce__'
p26
S'<built-in method __reduce__ of exceptions.ValueError object>'
p27
sS'__str__'
p28
S"<method-wrapper '__str__' of exceptions.ValueError object>"
p29
sS'__format__'
p30
S'<built-in method __format__ of exceptions.ValueError object>'
p31
sS'__getattribute__'
p32
S"<method-wrapper '__getattribute__' of exceptions.ValueError object>"
p33
sS'__class__'
p34
S"<type 'exceptions.ValueError'>"
p35
sS'__unicode__'
p36
S'<built-in method __unicode__ of exceptions.ValueError object>'
p37
sS'__delattr__'
p38
S"<method-wrapper '__delattr__' of exceptions.ValueError object>"
p39
sS'__subclasshook__'
p40
S'<built-in method __subclasshook__ of type object>'
p41
sS'__repr__'
p42
S"<method-wrapper '__repr__' of exceptions.ValueError object>"
p43
sS'__dict__'
p44
S'{}'
p45
sS'__sizeof__'
p46
S'<built-in method __sizeof__ of exceptions.ValueError object>'
p47
sS'__doc__'
p48
S"'Inappropriate argument value (of correct type).'"
p49
sS'__init__'
p50
S"<method-wrapper '__init__' of exceptions.ValueError object>"
p51
sS'__new__'
p52
S'<built-in method __new__ of type object>'
p53
ssS'evalue'
p54
S'need more than 1 value to unpack'
p55
sS'request'
p56
cgluon.html
XML_unpickle
p57
(S's\xf0s\x00\x00<div><table><tr><td style="font-weight:bold;vertical-align:top;">ajax</td><td style="vertical-align:top;">:</td><td><div>False</div></td></tr><tr><td style="font-weight:bold;vertical-align:top;">application</td><td style="vertical-align:top;">:</td><td><div>childcare</div></td></tr><tr><td style="font-weight:bold;vertical-align:top;">args</td><td style="vertical-align:top;">:</td><td><div><table></table></div></td></tr><tr><td style="font-weight:bold;vertical-align:top;">cid</td><td style="vertical-align:top;">:</td><td><div>None</div></td></tr><tr><td style="font-weight:bold;vertical-align:top;">client</td><td style="vertical-align:top;">:</td><td><div>127.0.0.1</div></td></tr><tr><td style="font-weight:bold;vertical-align:top;">controller</td><td style="vertical-align:top;">:</td><td><div>dataadmin</div></td></tr><tr><td style="font-weight:bold;vertical-align:top;">cookies</td><td style="vertical-align:top;">:</td><td><div><table><tr><td style="font-weight:bold;vertical-align:top;">session_id_admin</td><td style="vertical-align:top;">:</td><td><div>127.0.0.1-97288c8a-75d9-49f5-b6a5-8ecd657802e6<table><tr><td style="font-weight:bold;vertical-align:top;">comment</td><td style="vertical-align:top;">:</td><td><div></div></td></tr><tr><td style="font-weight:bold;vertical-align:top;">domain</td><td style="vertical-align:top;">:</td><td><div></div></td></tr><tr><td style="font-weight:bold;vertical-align:top;">expires</td><td style="vertical-align:top;">:</td><td><div></div></td></tr><tr><td style="font-weight:bold;vertical-align:top;">httponly</td><td style="vertical-align:top;">:</td><td><div></div></td></tr><tr><td style="font-weight:bold;vertical-align:top;">max-age</td><td style="vertical-align:top;">:</td><td><div></div></td></tr><tr><td style="font-weight:bold;vertical-align:top;">path</td><td style="vertical-align:top;">:</td><td><div></div></td></tr><tr><td style="font-weight:bold;vertical-align:top;">secure</td><td style="vertical-align:top;">:</td><td><div></div></td></tr><tr><td style="font-weight:bold;vertical-align:top;">version</td><td style="vertical-align:top;">:</td><td><div></div></td></tr></table></div></td></tr><tr><td style="font-weight:bold;vertical-align:top;">session_id_childcare</td><td style="vertical-align:top;">:</td><td><div>127.0.0.1-da67e77a-1d59-4435-ba01-70dff3bf30f1<table><tr><td style="font-weight:bold;vertical-align:top;">comment</td><td style="vertical-align:top;">:</td><td><div></div></td></tr><tr><td style="font-weight:bold;vertical-align:top;">domain</td><td style="vertical-align:top;">:</td><td><div></div></td></tr><tr><td style="font-weight:bold;vertical-align:top;">expires</td><td style="vertical-align:top;">:</td><td><div></div></td></tr><tr><td style="font-weight:bold;vertical-align:top;">httponly</td><td style="vertical-align:top;">:</td><td><div></div></td></tr><tr><td style="font-weight:bold;vertical-align:top;">max-age</td><td style="vertical-align:top;">:</td><td><div></div></td></tr><tr><td style="font-weight:bold;vertical-align:top;">path</td><td style="vertical-align:top;">:</td><td><div></div></td></tr><tr><td style="font-weight:bold;vertical-align:top;">secure</td><td style="vertical-align:top;">:</td><td><div></div></td></tr><tr><td style="font-weight:bold;vertical-align:top;">version</td><td style="vertical-align:top;">:</td><td><div></div></td></tr></table></div></td></tr><tr><td style="font-weight:bold;vertical-align:top;">session_id_images</td><td style="vertical-align:top;">:</td><td><div>127.0.0.1-7f4a2b06-f482-40dc-b551-a8d134f0608c<table><tr><td style="font-weight:bold;vertical-align:top;">comment</td><td style="vertical-align:top;">:</td><td><div></div></td></tr><tr><td style="font-weight:bold;vertical-align:top;">domain</td><td style="vertical-align:top;">:</td><td><div></div></td></tr><tr><td style="font-weight:bold;vertical-align:top;">expires</td><td style="vertical-align:top;">:</td><td><div></div></td></tr><tr><td style="font-weight:bold;vertical-align:top;">httponly</td><td style="vertical-align:top;">:</td><td><div></div></td></tr><tr><td style="font-weight:bold;vertical-align:top;">max-age</td><td style="vertical-align:top;">:</td><td><div></div></td></tr><tr><td style="font-weight:bold;vertical-align:top;">path</td><td style="vertical-align:top;">:</td><td><div></div></td></tr><tr><td style="font-weight:bold;vertical-align:top;">secure</td><td style="vertical-align:top;">:</td><td><div></div></td></tr><tr><td style="font-weight:bold;vertical-align:top;">version</td><td style="vertical-align:top;">:</td><td><div></div></td></tr></table></div></td></tr><tr><td style="font-weight:bold;vertical-align:top;">session_id_test</td><td style="vertical-align:top;">:</td><td><div>127.0.0.1-4e69ca56-aa6c-4e80-83a8-edc6c482e1bd<table><tr><td style="font-weight:bold;vertical-align:top;">comment</td><td style="vertical-align:top;">:</td><td><div></div></td></tr><tr><td style="font-weight:bold;vertical-align:top;">domain</td><td style="vertical-align:top;">:</td><td><div></div></td></tr><tr><td style="font-weight:bold;vertical-align:top;">expires</td><td style="vertical-align:top;">:</td><td><div></div></td></tr><tr><td style="font-weight:bold;vertical-align:top;">httponly</td><td style="vertical-align:top;">:</td><td><div></div></td></tr><tr><td style="font-weight:bold;vertical-align:top;">max-age</td><td style="vertical-align:top;">:</td><td><div></div></td></tr><tr><td style="font-weight:bold;vertical-align:top;">path</td><td style="vertical-align:top;">:</td><td><div></div></td></tr><tr><td style="font-weight:bold;vertical-align:top;">secure</td><td style="vertical-align:top;">:</td><td><div></div></td></tr><tr><td style="font-weight:bold;vertical-align:top;">version</td><td style="vertical-align:top;">:</td><td><div></div></td></tr></table></div></td></tr><tr><td style="font-weight:bold;vertical-align:top;">session_id_welcome</td><td style="vertical-align:top;">:</td><td><div>127.0.0.1-e69f2ff8-6808-4500-b876-7d42b74b55c0<table><tr><td style="font-weight:bold;vertical-align:top;">comment</td><td style="vertical-align:top;">:</td><td><div></div></td></tr><tr><td style="font-weight:bold;vertical-align:top;">domain</td><td style="vertical-align:top;">:</td><td><div></div></td></tr><tr><td style="font-weight:bold;vertical-align:top;">expires</td><td style="vertical-align:top;">:</td><td><div></div></td></tr><tr><td style="font-weight:bold;vertical-align:top;">httponly</td><td style="vertical-align:top;">:</td><td><div></div></td></tr><tr><td style="font-weight:bold;vertical-align:top;">max-age</td><td style="vertical-align:top;">:</td><td><div></div></td></tr><tr><td style="font-weight:bold;vertical-align:top;">path</td><td style="vertical-align:top;">:</td><td><div></div></td></tr><tr><td style="font-weight:bold;vertical-align:top;">secure</td><td style="vertical-align:top;">:</td><td><div></div></td></tr><tr><td style="font-weight:bold;vertical-align:top;">version</td><td style="vertical-align:top;">:</td><td><div></div></td></tr></table></div></td></tr></table></div></td></tr><tr><td style="font-weight:bold;vertical-align:top;">env</td><td style="vertical-align:top;">:</td><td><div><table><tr><td style="font-weight:bold;vertical-align:top;">CONTENT_LENGTH</td><td style="vertical-align:top;">:</td><td><div>83862</div></td></tr><tr><td style="font-weight:bold;vertical-align:top;">CONTENT_TYPE</td><td style="vertical-align:top;">:</td><td><div>multipart/form-data; boundary=----WebKitFormBoundaryvovCQNHp2MatJIIJ</div></td></tr><tr><td style="font-weight:bold;vertical-align:top;">DOCUMENT_ROOT</td><td style="vertical-align:top;">:</td><td><div>/var/www</div></td></tr><tr><td style="font-weight:bold;vertical-align:top;">GATEWAY_INTERFACE</td><td style="vertical-align:top;">:</td><td><div>CGI/1.1</div></td></tr><tr><td style="font-weight:bold;vertical-align:top;">HTTP_ACCEPT</td><td style="vertical-align:top;">:</td><td><div>text/html,application/xhtml+xml,application/xml;q=0.9,image/webp,*/*;q=0.8</div></td></tr><tr><td style="font-weight:bold;vertical-align:top;">HTTP_ACCEPT_ENCODING</td><td style="vertical-align:top;">:</td><td><div>gzip,deflate,sdch</div></td></tr><tr><td style="font-weight:bold;vertical-align:top;">HTTP_ACCEPT_LANGUAGE</td><td style="vertical-align:top;">:</td><td><div>en-GB,en-US;q=0.8,en;q=0.6</div></td></tr><tr><td style="font-weight:bold;vertical-align:top;">HTTP_CONNECTION</td><td style="vertical-align:top;">:</td><td><div>keep-alive</div></td></tr><tr><td style="font-weight:bold;vertical-align:top;">HTTP_COOKIE</td><td style="vertical-align:top;">:</td><td><div>session_id_welcome=127.0.0.1-e69f2ff8-6808-4500-b876-7d42b74b55c0; session_id_images=127.0.0.1-7f4a2b06-f482-40dc-b551-a8d134f0608c; session_id_test=127.0.0.1-4e69ca56-aa6c-4e80-83a8-edc6c482e1bd; session_id_admin=127.0.0.1-97288c8a-75d9-49f5-b6a5-8ecd657802e6; session_id_childcare=127.0.0.1-da67e77a-1d59-4435-ba01-70dff3bf30f1</div></td></tr><tr><td style="font-weight:bold;vertical-align:top;">HTTP_HOST</td><td style="vertical-align:top;">:</td><td><div>localhost</div></td></tr><tr><td style="font-weight:bold;vertical-align:top;">HTTP_ORIGIN</td><td style="vertical-align:top;">:</td><td><div>https://localhost</div></td></tr><tr><td style="font-weight:bold;vertical-align:top;">HTTP_REFERER</td><td style="vertical-align:top;">:</td><td><div>https://localhost/childcare/dataadmin/index.html</div></td></tr><tr><td style="font-weight:bold;vertical-align:top;">HTTP_USER_AGENT</td><td style="vertical-align:top;">:</td><td><div>Mozilla/5.0 (X11; Linux x86_64) AppleWebKit/537.36 (KHTML, like Gecko) Chrome/30.0.1599.66 Safari/537.36</div></td></tr><tr><td style="font-weight:bold;vertical-align:top;">PATH_INFO</td><td style="vertical-align:top;">:</td><td><div>/childcare/dataadmin/index.html</div></td></tr><tr><td style="font-weight:bold;vertical-align:top;">PATH_TRANSLATED</td><td style="vertical-align:top;">:</td><td><div>/home/www-data/web2py/wsgihandler.py/childcare/dataadmin/index.html</div></td></tr><tr><td style="font-weight:bold;vertical-align:top;">QUERY_STRING</td><td style="vertical-align:top;">:</td><td><div></div></td></tr><tr><td style="font-weight:bold;vertical-align:top;">REMOTE_ADDR</td><td style="vertical-align:top;">:</td><td><div>127.0.0.1</div></td></tr><tr><td style="font-weight:bold;vertical-align:top;">REMOTE_PORT</td><td style="vertical-align:top;">:</td><td><div>47626</div></td></tr><tr><td style="font-weight:bold;vertical-align:top;">REQUEST_METHOD</td><td style="vertical-align:top;">:</td><td><div>POST</div></td></tr><tr><td style="font-weight:bold;vertical-align:top;">REQUEST_URI</td><td style="vertical-align:top;">:</td><td><div>/childcare/dataadmin/index.html</div></td></tr><tr><td style="font-weight:bold;vertical-align:top;">SCRIPT_FILENAME</td><td style="vertical-align:top;">:</td><td><div>/home/www-data/web2py/wsgihandler.py</div></td></tr><tr><td style="font-weight:bold;vertical-align:top;">SCRIPT_NAME</td><td style="vertical-align:top;">:</td><td><div></div></td></tr><tr><td style="font-weight:bold;vertical-align:top;">SERVER_ADDR</td><td style="vertical-align:top;">:</td><td><div>127.0.0.1</div></td></tr><tr><td style="font-weight:bold;vertical-align:top;">SERVER_ADMIN</td><td style="vertical-align:top;">:</td><td><div>[no address given]</div></td></tr><tr><td style="font-weight:bold;vertical-align:top;">SERVER_NAME</td><td style="vertical-align:top;">:</td><td><div>localhost</div></td></tr><tr><td style="font-weight:bold;vertical-align:top;">SERVER_PORT</td><td style="vertical-align:top;">:</td><td><div>443</div></td></tr><tr><td style="font-weight:bold;vertical-align:top;">SERVER_PROTOCOL</td><td style="vertical-align:top;">:</td><td><div>HTTP/1.1</div></td></tr><tr><td style="font-weight:bold;vertical-align:top;">SERVER_SIGNATURE</td><td style="vertical-align:top;">:</td><td><div>&lt;address&gt;Apache/2.2.22 (Ubuntu) Server at localhost Port 443&lt;/address&gt;\n</div></td></tr><tr><td style="font-weight:bold;vertical-align:top;">SERVER_SOFTWARE</td><td style="vertical-align:top;">:</td><td><div>Apache/2.2.22 (Ubuntu)</div></td></tr><tr><td style="font-weight:bold;vertical-align:top;">SSL_TLS_SNI</td><td style="vertical-align:top;">:</td><td><div>localhost</div></td></tr><tr><td style="font-weight:bold;vertical-align:top;">app_folders</td><td style="vertical-align:top;">:</td><td><div>set([&#x27;/home/www-data/web2py/applications/childcare/&#x27;, &#x27;/home/www-data/web2py/applications/admin/&#x27;])</div></td></tr><tr><td style="font-weight:bold;vertical-align:top;">applications_parent</td><td style="vertical-align:top;">:</td><td><div>/home/www-data/web2py</div></td></tr><tr><td style="font-weight:bold;vertical-align:top;">content_length</td><td style="vertical-align:top;">:</td><td><div>83862</div></td></tr><tr><td style="font-weight:bold;vertical-align:top;">content_type</td><td style="vertical-align:top;">:</td><td><div>multipart/form-data; boundary=----WebKitFormBoundaryvovCQNHp2MatJIIJ</div></td></tr><tr><td style="font-weight:bold;vertical-align:top;">db_sessions</td><td style="vertical-align:top;">:</td><td><div>set([])</div></td></tr><tr><td style="font-weight:bold;vertical-align:top;">debugging</td><td style="vertical-align:top;">:</td><td><div>False</div></td></tr><tr><td style="font-weight:bold;vertical-align:top;">document_root</td><td style="vertical-align:top;">:</td><td><div>/var/www</div></td></tr><tr><td style="font-weight:bold;vertical-align:top;">gateway_interface</td><td style="vertical-align:top;">:</td><td><div>CGI/1.1</div></td></tr><tr><td style="font-weight:bold;vertical-align:top;">gluon_parent</td><td style="vertical-align:top;">:</td><td><div>/home/www-data/web2py</div></td></tr><tr><td style="font-weight:bold;vertical-align:top;">http_accept</td><td style="vertical-align:top;">:</td><td><div>text/html,application/xhtml+xml,application/xml;q=0.9,image/webp,*/*;q=0.8</div></td></tr><tr><td style="font-weight:bold;vertical-align:top;">http_accept_encoding</td><td style="vertical-align:top;">:</td><td><div>gzip,deflate,sdch</div></td></tr><tr><td style="font-weight:bold;vertical-align:top;">http_accept_language</td><td style="vertical-align:top;">:</td><td><div>en-GB,en-US;q=0.8,en;q=0.6</div></td></tr><tr><td style="font-weight:bold;vertical-align:top;">http_connection</td><td style="vertical-align:top;">:</td><td><div>keep-alive</div></td></tr><tr><td style="font-weight:bold;vertical-align:top;">http_cookie</td><td style="vertical-align:top;">:</td><td><div>session_id_welcome=127.0.0.1-e69f2ff8-6808-4500-b876-7d42b74b55c0; session_id_images=127.0.0.1-7f4a2b06-f482-40dc-b551-a8d134f0608c; session_id_test=127.0.0.1-4e69ca56-aa6c-4e80-83a8-edc6c482e1bd; session_id_admin=127.0.0.1-97288c8a-75d9-49f5-b6a5-8ecd657802e6; session_id_childcare=127.0.0.1-da67e77a-1d59-4435-ba01-70dff3bf30f1</div></td></tr><tr><td style="font-weight:bold;vertical-align:top;">http_host</td><td style="vertical-align:top;">:</td><td><div>localhost</div></td></tr><tr><td style="font-weight:bold;vertical-align:top;">http_origin</td><td style="vertical-align:top;">:</td><td><div>https://localhost</div></td></tr><tr><td style="font-weight:bold;vertical-align:top;">http_referer</td><td style="vertical-align:top;">:</td><td><div>https://localhost/childcare/dataadmin/index.html</div></td></tr><tr><td style="font-weight:bold;vertical-align:top;">http_user_agent</td><td style="vertical-align:top;">:</td><td><div>Mozilla/5.0 (X11; Linux x86_64) AppleWebKit/537.36 (KHTML, like Gecko) Chrome/30.0.1599.66 Safari/537.36</div></td></tr><tr><td style="font-weight:bold;vertical-align:top;">is_jython</td><td style="vertical-align:top;">:</td><td><div>False</div></td></tr><tr><td style="font-weight:bold;vertical-align:top;">is_pypy</td><td style="vertical-align:top;">:</td><td><div>False</div></td></tr><tr><td style="font-weight:bold;vertical-align:top;">is_source</td><td style="vertical-align:top;">:</td><td><div>True</div></td></tr><tr><td style="font-weight:bold;vertical-align:top;">local_hosts</td><td style="vertical-align:top;">:</td><td><div><table><tr><td><div>mystic</div></td></tr><tr><td><div>::ffff:127.0.0.1</div></td></tr><tr><td><div>::1</div></td></tr><tr><td><div>localhost</div></td></tr><tr><td><div>127.0.1.1</div></td></tr><tr><td><div>127.0.0.1</div></td></tr></table></div></td></tr><tr><td style="font-weight:bold;vertical-align:top;">mod_wsgi.application_group</td><td style="vertical-align:top;">:</td><td><div>127.0.1.1|</div></td></tr><tr><td style="font-weight:bold;vertical-align:top;">mod_wsgi.callable_object</td><td style="vertical-align:top;">:</td><td><div>application</div></td></tr><tr><td style="font-weight:bold;vertical-align:top;">mod_wsgi.enable_sendfile</td><td style="vertical-align:top;">:</td><td><div>0</div></td></tr><tr><td style="font-weight:bold;vertical-align:top;">mod_wsgi.handler_script</td><td style="vertical-align:top;">:</td><td><div></div></td></tr><tr><td style="font-weight:bold;vertical-align:top;">mod_wsgi.input_chunked</td><td style="vertical-align:top;">:</td><td><div>0</div></td></tr><tr><td style="font-weight:bold;vertical-align:top;">mod_wsgi.listener_host</td><td style="vertical-align:top;">:</td><td><div></div></td></tr><tr><td style="font-weight:bold;vertical-align:top;">mod_wsgi.listener_port</td><td style="vertical-align:top;">:</td><td><div>443</div></td></tr><tr><td style="font-weight:bold;vertical-align:top;">mod_wsgi.process_group</td><td style="vertical-align:top;">:</td><td><div>web2py</div></td></tr><tr><td style="font-weight:bold;vertical-align:top;">mod_wsgi.queue_start</td><td style="vertical-align:top;">:</td><td><div>1381514664512171</div></td></tr><tr><td style="font-weight:bold;vertical-align:top;">mod_wsgi.request_handler</td><td style="vertical-align:top;">:</td><td><div>wsgi-script</div></td></tr><tr><td style="font-weight:bold;vertical-align:top;">mod_wsgi.script_reloading</td><td style="vertical-align:top;">:</td><td><div>1</div></td></tr><tr><td style="font-weight:bold;vertical-align:top;">mod_wsgi.version</td><td style="vertical-align:top;">:</td><td><div><table><tr><td><div>3</div></td></tr><tr><td><div>4</div></td></tr></table></div></td></tr><tr><td style="font-weight:bold;vertical-align:top;">mod_wsgi_application_group</td><td style="vertical-align:top;">:</td><td><div>127.0.1.1|</div></td></tr><tr><td style="font-weight:bold;vertical-align:top;">mod_wsgi_callable_object</td><td style="vertical-align:top;">:</td><td><div>application</div></td></tr><tr><td style="font-weight:bold;vertical-align:top;">mod_wsgi_enable_sendfile</td><td style="vertical-align:top;">:</td><td><div>0</div></td></tr><tr><td style="font-weight:bold;vertical-align:top;">mod_wsgi_handler_script</td><td style="vertical-align:top;">:</td><td><div></div></td></tr><tr><td style="font-weight:bold;vertical-align:top;">mod_wsgi_input_chunked</td><td style="vertical-align:top;">:</td><td><div>0</div></td></tr><tr><td style="font-weight:bold;vertical-align:top;">mod_wsgi_listener_host</td><td style="vertical-align:top;">:</td><td><div></div></td></tr><tr><td style="font-weight:bold;vertical-align:top;">mod_wsgi_listener_port</td><td style="vertical-align:top;">:</td><td><div>443</div></td></tr><tr><td style="font-weight:bold;vertical-align:top;">mod_wsgi_process_group</td><td style="vertical-align:top;">:</td><td><div>web2py</div></td></tr><tr><td style="font-weight:bold;vertical-align:top;">mod_wsgi_queue_start</td><td style="vertical-align:top;">:</td><td><div>1381514664512171</div></td></tr><tr><td style="font-weight:bold;vertical-align:top;">mod_wsgi_request_handler</td><td style="vertical-align:top;">:</td><td><div>wsgi-script</div></td></tr><tr><td style="font-weight:bold;vertical-align:top;">mod_wsgi_script_reloading</td><td style="vertical-align:top;">:</td><td><div>1</div></td></tr><tr><td style="font-weight:bold;vertical-align:top;">mod_wsgi_version</td><td style="vertical-align:top;">:</td><td><div><table><tr><td><div>3</div></td></tr><tr><td><div>4</div></td></tr></table></div></td></tr><tr><td style="font-weight:bold;vertical-align:top;">path_info</td><td style="vertical-align:top;">:</td><td><div>/childcare/dataadmin/index.html</div></td></tr><tr><td style="font-weight:bold;vertical-align:top;">path_translated</td><td style="vertical-align:top;">:</td><td><div>/home/www-data/web2py/wsgihandler.py/childcare/dataadmin/index.html</div></td></tr><tr><td style="font-weight:bold;vertical-align:top;">query_string</td><td style="vertical-align:top;">:</td><td><div></div></td></tr><tr><td style="font-weight:bold;vertical-align:top;">remote_addr</td><td style="vertical-align:top;">:</td><td><div>127.0.0.1</div></td></tr><tr><td style="font-weight:bold;vertical-align:top;">remote_port</td><td style="vertical-align:top;">:</td><td><div>47626</div></td></tr><tr><td style="font-weight:bold;vertical-align:top;">request_method</td><td style="vertical-align:top;">:</td><td><div>POST</div></td></tr><tr><td style="font-weight:bold;vertical-align:top;">request_uri</td><td style="vertical-align:top;">:</td><td><div>/childcare/dataadmin/index.html</div></td></tr><tr><td style="font-weight:bold;vertical-align:top;">script_filename</td><td style="vertical-align:top;">:</td><td><div>/home/www-data/web2py/wsgihandler.py</div></td></tr><tr><td style="font-weight:bold;vertical-align:top;">script_name</td><td style="vertical-align:top;">:</td><td><div></div></td></tr><tr><td style="font-weight:bold;vertical-align:top;">server_addr</td><td style="vertical-align:top;">:</td><td><div>127.0.0.1</div></td></tr><tr><td style="font-weight:bold;vertical-align:top;">server_admin</td><td style="vertical-align:top;">:</td><td><div>[no address given]</div></td></tr><tr><td style="font-weight:bold;vertical-align:top;">server_name</td><td style="vertical-align:top;">:</td><td><div>localhost</div></td></tr><tr><td style="font-weight:bold;vertical-align:top;">server_port</td><td style="vertical-align:top;">:</td><td><div>443</div></td></tr><tr><td style="font-weight:bold;vertical-align:top;">server_protocol</td><td style="vertical-align:top;">:</td><td><div>HTTP/1.1</div></td></tr><tr><td style="font-weight:bold;vertical-align:top;">server_signature</td><td style="vertical-align:top;">:</td><td><div>&lt;address&gt;Apache/2.2.22 (Ubuntu) Server at localhost Port 443&lt;/address&gt;\n</div></td></tr><tr><td style="font-weight:bold;vertical-align:top;">server_software</td><td style="vertical-align:top;">:</td><td><div>Apache/2.2.22 (Ubuntu)</div></td></tr><tr><td style="font-weight:bold;vertical-align:top;">ssl_tls_sni</td><td style="vertical-align:top;">:</td><td><div>localhost</div></td></tr><tr><td style="font-weight:bold;vertical-align:top;">web2py_path</td><td style="vertical-align:top;">:</td><td><div>/home/www-data/web2py</div></td></tr><tr><td style="font-weight:bold;vertical-align:top;">web2py_version</td><td style="vertical-align:top;">:</td><td><div>2.6.4-stable+timestamp.2013.09.22.01.43.37</div></td></tr><tr><td style="font-weight:bold;vertical-align:top;">wsgi.errors</td><td style="vertical-align:top;">:</td><td><div>&lt;mod_wsgi.Log object at 0x7f83c03b50b0&gt;</div></td></tr><tr><td style="font-weight:bold;vertical-align:top;">wsgi.file_wrapper</td><td style="vertical-align:top;">:</td><td><div>&lt;built-in method file_wrapper of mod_wsgi.Adapter object at 0x7f83d0ea65d0&gt;</div></td></tr><tr><td style="font-weight:bold;vertical-align:top;">wsgi.input</td><td style="vertical-align:top;">:</td><td><div>&lt;mod_wsgi.Input object at 0x7f83c03b5070&gt;</div></td></tr><tr><td style="font-weight:bold;vertical-align:top;">wsgi.multiprocess</td><td style="vertical-align:top;">:</td><td><div>False</div></td></tr><tr><td style="font-weight:bold;vertical-align:top;">wsgi.multithread</td><td style="vertical-align:top;">:</td><td><div>True</div></td></tr><tr><td style="font-weight:bold;vertical-align:top;">wsgi.run_once</td><td style="vertical-align:top;">:</td><td><div>False</div></td></tr><tr><td style="font-weight:bold;vertical-align:top;">wsgi.url_scheme</td><td style="vertical-align:top;">:</td><td><div>https</div></td></tr><tr><td style="font-weight:bold;vertical-align:top;">wsgi.version</td><td style="vertical-align:top;">:</td><td><div><table><tr><td><div>1</div></td></tr><tr><td><div>0</div></td></tr></table></div></td></tr><tr><td style="font-weight:bold;vertical-align:top;">wsgi_errors</td><td style="vertical-align:top;">:</td><td><div>&lt;mod_wsgi.Log object at 0x7f83c03b50b0&gt;</div></td></tr><tr><td style="font-weight:bold;vertical-align:top;">wsgi_file_wrapper</td><td style="vertical-align:top;">:</td><td><div>&lt;built-in method file_wrapper of mod_wsgi.Adapter object at 0x7f83d0ea65d0&gt;</div></td></tr><tr><td style="font-weight:bold;vertical-align:top;">wsgi_input</td><td style="vertical-align:top;">:</td><td><div>&lt;mod_wsgi.Input object at 0x7f83c03b5070&gt;</div></td></tr><tr><td style="font-weight:bold;vertical-align:top;">wsgi_multiprocess</td><td style="vertical-align:top;">:</td><td><div>False</div></td></tr><tr><td style="font-weight:bold;vertical-align:top;">wsgi_multithread</td><td style="vertical-align:top;">:</td><td><div>True</div></td></tr><tr><td style="font-weight:bold;vertical-align:top;">wsgi_run_once</td><td style="vertical-align:top;">:</td><td><div>False</div></td></tr><tr><td style="font-weight:bold;vertical-align:top;">wsgi_url_scheme</td><td style="vertical-align:top;">:</td><td><div>https</div></td></tr><tr><td style="font-weight:bold;vertical-align:top;">wsgi_version</td><td style="vertical-align:top;">:</td><td><div><table><tr><td><div>1</div></td></tr><tr><td><div>0</div></td></tr></table></div></td></tr></table></div></td></tr><tr><td style="font-weight:bold;vertical-align:top;">extension</td><td style="vertical-align:top;">:</td><td><div>html</div></td></tr><tr><td style="font-weight:bold;vertical-align:top;">folder</td><td style="vertical-align:top;">:</td><td><div>/home/www-data/web2py/applications/childcare/</div></td></tr><tr><td style="font-weight:bold;vertical-align:top;">function</td><td style="vertical-align:top;">:</td><td><div>index</div></td></tr><tr><td style="font-weight:bold;vertical-align:top;">global_settings</td><td style="vertical-align:top;">:</td><td><div><table><tr><td style="font-weight:bold;vertical-align:top;">app_folders</td><td style="vertical-align:top;">:</td><td><div>set([&#x27;/home/www-data/web2py/applications/childcare/&#x27;, &#x27;/home/www-data/web2py/applications/admin/&#x27;])</div></td></tr><tr><td style="font-weight:bold;vertical-align:top;">applications_parent</td><td style="vertical-align:top;">:</td><td><div>/home/www-data/web2py</div></td></tr><tr><td style="font-weight:bold;vertical-align:top;">db_sessions</td><td style="vertical-align:top;">:</td><td><div>set([])</div></td></tr><tr><td style="font-weight:bold;vertical-align:top;">debugging</td><td style="vertical-align:top;">:</td><td><div>False</div></td></tr><tr><td style="font-weight:bold;vertical-align:top;">gluon_parent</td><td style="vertical-align:top;">:</td><td><div>/home/www-data/web2py</div></td></tr><tr><td style="font-weight:bold;vertical-align:top;">is_jython</td><td style="vertical-align:top;">:</td><td><div>False</div></td></tr><tr><td style="font-weight:bold;vertical-align:top;">is_pypy</td><td style="vertical-align:top;">:</td><td><div>False</div></td></tr><tr><td style="font-weight:bold;vertical-align:top;">is_source</td><td style="vertical-align:top;">:</td><td><div>True</div></td></tr><tr><td style="font-weight:bold;vertical-align:top;">local_hosts</td><td style="vertical-align:top;">:</td><td><div><table><tr><td><div>mystic</div></td></tr><tr><td><div>::ffff:127.0.0.1</div></td></tr><tr><td><div>::1</div></td></tr><tr><td><div>localhost</div></td></tr><tr><td><div>127.0.1.1</div></td></tr><tr><td><div>127.0.0.1</div></td></tr></table></div></td></tr><tr><td style="font-weight:bold;vertical-align:top;">web2py_version</td><td style="vertical-align:top;">:</td><td><div>2.6.4-stable+timestamp.2013.09.22.01.43.37</div></td></tr></table></div></td></tr><tr><td style="font-weight:bold;vertical-align:top;">is_https</td><td style="vertical-align:top;">:</td><td><div>True</div></td></tr><tr><td style="font-weight:bold;vertical-align:top;">is_local</td><td style="vertical-align:top;">:</td><td><div>True</div></td></tr><tr><td style="font-weight:bold;vertical-align:top;">is_restful</td><td style="vertical-align:top;">:</td><td><div>False</div></td></tr><tr><td style="font-weight:bold;vertical-align:top;">now</td><td style="vertical-align:top;">:</td><td><div>datetime.datetime(2013, 10, 11, 15, 4, 24, 512914)</div></td></tr><tr><td style="font-weight:bold;vertical-align:top;">raw_args</td><td style="vertical-align:top;">:</td><td><div></div></td></tr><tr><td style="font-weight:bold;vertical-align:top;">raw_extension</td><td style="vertical-align:top;">:</td><td><div>html</div></td></tr><tr><td style="font-weight:bold;vertical-align:top;">url</td><td style="vertical-align:top;">:</td><td><div>/childcare/dataadmin/index.html</div></td></tr><tr><td style="font-weight:bold;vertical-align:top;">utcnow</td><td style="vertical-align:top;">:</td><td><div>datetime.datetime(2013, 10, 11, 18, 4, 24, 512932)</div></td></tr><tr><td style="font-weight:bold;vertical-align:top;">uuid</td><td style="vertical-align:top;">:</td><td><div>childcare/127.0.0.1.2013-10-11.15-04-24.74ae48a6-1b35-484c-a42c-e38395422189</div></td></tr><tr><td style="font-weight:bold;vertical-align:top;">wsgi</td><td style="vertical-align:top;">:</td><td><div>&lt;gluon.main.LazyWSGI object at 0x7f83d0ec9450&gt;</div></td></tr></table></div>'
tRp58
sS'frames'
p59
(lp60
(dp61
S'file'
p62
S'/home/www-data/web2py/gluon/restricted.py'
p63
sS'dump'
p64
(dp65
S'environment'
p66
S"{'A': <class 'gluon.html.A'>, 'ANY_OF': <class 'gluon.validators.ANY_OF'>, 'Auth': <class 'gluon.tools.Auth'>, 'B': <class 'gluon.html.B'>, 'BEAUTIFY': <class 'gluon.html.BEAUTIFY'>, 'BODY': <class 'gluon.html.BODY'>, 'BR': <class 'gluon.html.BR'>, 'BUTTON': <class 'gluon.html.BUTTON'>, 'CAT': <class 'gluon.html.CAT'>, 'CENTER': <class 'gluon.html.CENTER'>, ...}"
p67
sS'ccode'
p68
S'<code object <module> at 0x7f83d0eb95b0, file "/...ions/childcare/controllers/dataadmin.py", line 1>'
p69
ssS'lnum'
p70
I217
sS'lines'
p71
(dp72
I212
S'    try:'
p73
sI213
S'        if isinstance(code, types.CodeType):'
p74
sI214
S'            ccode = code'
p75
sI215
S'        else:'
p76
sI216
S'            ccode = compile2(code, layer)'
p77
sI217
S'        exec ccode in environment'
p78
sI218
S'    except HTTP:'
p79
sI219
S'        raise'
p80
sI220
S'    except RestrictedError:'
p81
sI221
S'        # do not encapsulate (obfuscate) the original RestrictedError'
p82
ssS'call'
p83
S"(code='import os\\nimport csv\\nimport json\\nimport re\\n\\ndef ...eType[0]\\n\\nresponse._vars=response._caller(index)\\n', environment={'A': <class 'gluon.html.A'>, 'ANY_OF': <class 'gluon.validators.ANY_OF'>, 'Auth': <class 'gluon.tools.Auth'>, 'B': <class 'gluon.html.B'>, 'BEAUTIFY': <class 'gluon.html.BEAUTIFY'>, 'BODY': <class 'gluon.html.BODY'>, 'BR': <class 'gluon.html.BR'>, 'BUTTON': <class 'gluon.html.BUTTON'>, 'CAT': <class 'gluon.html.CAT'>, 'CENTER': <class 'gluon.html.CENTER'>, ...}, layer='/home/www-data/web2py/applications/childcare/controllers/dataadmin.py')"
p84
sS'func'
p85
S'restricted'
p86
sa(dp87
g62
S'/home/www-data/web2py/applications/childcare/controllers/dataadmin.py'
p88
sg64
(dp89
sg70
I79
sg71
(dp90
I68
S'    return dict(min = ageFor(minmax[0]),'
p91
sI69
S'                max = ageFor(minmax[1])'
p92
sI70
S'                )'
p93
sI71
S''
sI72
S'def ageFor(age_string):'
p94
sI73
S'    ageType = age_string.strip().split()'
p95
sI74
S'    if not ageType[0]:'
p96
sI75
S'        return 0'
p97
sI76
S'    else:'
p98
sI77
S"        return int(ageType[0]) * 12 if ageType[1] == 'years' else ageType[0]"
p99
ssg83
S'()'
p100
sg85
S'<module>'
p101
sa(dp102
g62
S'/home/www-data/web2py/gluon/globals.py'
p103
sg64
(dp104
S'self'
p105
S'undefined'
p106
sS'f'
S'<function index>'
p107
ssg70
I371
sg71
(dp108
I366
S'        self.menu = []             # used by the default view layout'
p109
sI367
S'        self.files = []            # used by web2py_ajax.html'
p110
sI368
S'        self.generic_patterns = []  # patterns to allow generic views'
p111
sI369
S"        self.delimiters = ('{{', '}}')"
p112
sI370
S'        self._vars = None'
p113
sI371
S'        self._caller = lambda f: f()'
p114
sI372
S'        self._view_environment = None'
p115
sI373
S'        self._custom_commit = None'
p116
sI374
S'        self._custom_rollback = None'
p117
sI375
S''
ssg83
S'(f=<function index>)'
p118
sg85
S'<lambda>'
p119
sa(dp120
g62
S'/home/www-data/web2py/applications/childcare/controllers/dataadmin.py'
p121
sg64
(dp122
S'global db'
p123
S'<DAL uri="sqlite://storage.sqlite">'
p124
sS'db.agencies'
p125
S'<Table agencies (id,childcare_provider_id,facili...ection_date,in_compliance,created_on,created_by)>'
p126
sS'row'
p127
S"['2432720', 'Fox Hollow Child Care Centre and Family Home Agency', 'Family Home Day Care Agency', '1 FOX HOLLOW DR. UPPER TANTALLON', 'Halifax County', '902-826-2709', 'foxhollow@hfx.eastlink.ca', '', '', '', 'Yes', '0', '', '']"
p128
sS'name'
p129
g106
sS'agency_test'
p130
S'None'
p131
ssg70
I37
sg71
(dp132
I32
S''
sI33
S'                    compliant = 1'
p133
sI34
S"                    if row[12] == 'No':"
p134
sI35
S'                        compliant = 0'
p135
sI36
S''
sI37
S'                    agency_test = db.agencies(name=row[1])'
p136
sI38
S''
sI39
S'                    if not agency_test:'
p137
sI40
S'                        db.agencies.insert( childcare_provider_id = row[0],'
p138
sI41
S'                                            name = row[1],'
p139
ssg83
S'()'
p140
sg85
S'index'
p141
sa(dp142
g62
S'/home/www-data/web2py/gluon/dal.py'
p143
sg64
(dp144
S'orderby'
p145
S'None'
p146
sS'orderby_on_limitby'
p147
g106
sS'builtinFalse'
p148
S'False'
p149
sS'self'
p150
S'<Table agencies (id,childcare_provider_id,facili...ection_date,in_compliance,created_on,created_by)>'
p151
sS'limitby'
p152
g106
sS').select'
p153
g106
sS'for_update'
p154
g149
sS'query'
p155
S"<Query (agencies.name = 'Fox Hollow Child Care Centre and Family Home Agency')>"
p156
sS'self._db'
p157
S'<DAL uri="sqlite://storage.sqlite">'
p158
sS').first'
p159
g106
ssg70
I8579
sg71
(dp160
I8576
S'            return record'
p161
sI8577
S'        elif kwargs:'
p162
sI8578
S'            query = reduce(lambda a,b:a&b,[self[k]==v for k,v in kwargs.iteritems()])'
p163
sI8579
S'            return self._db(query).select(limitby=(0,1),for_update=for_update, orderby=orderby, orderby_on_limitby=False).first()'
p164
sI8580
S'        else:'
p165
sI8581
S'            return None'
p166
sI8582
S''
sI8583
S'    def __setitem__(self, key, value):'
p167
sI8574
S'                for k,v in kwargs.iteritems():'
p168
sI8575
S'                    if record[k]!=v: return None'
p169
ssg83
S"(self=<Table agencies (id,childcare_provider_id,facili...ection_date,in_compliance,created_on,created_by)>, key=<function <lambda>>, **kwargs={'name': 'Fox Hollow Child Care Centre and Family Home Agency'})"
p170
sg85
S'__call__'
p171
sa(dp172
g62
S'/home/www-data/web2py/gluon/dal.py'
p173
sg64
(dp174
S'self.query'
p175
S"<Query (agencies.name = 'Fox Hollow Child Care Centre and Family Home Agency')>"
p176
sS'adapter.select'
p177
S'<bound method SQLiteAdapter.select of <gluon.dal.SQLiteAdapter object>>'
p178
sS'fields'
p179
S'[<gluon.dal.Field object>, <gluon.dal.Field object>, <gluon.dal.Field object>, <gluon.dal.Field object>, <gluon.dal.Field object>, <gluon.dal.Field object>, <gluon.dal.Field object>, <gluon.dal.Field object>, <gluon.dal.Field object>, <gluon.dal.Field object>, <gluon.dal.Field object>, <gluon.dal.Field object>, <gluon.dal.Field object>, <gluon.dal.Field object>, <gluon.dal.Field object>]'
p180
sS'adapter'
p181
S'<gluon.dal.SQLiteAdapter object>'
p182
sS'attributes'
p183
S"{'for_update': False, 'limitby': (0, 1), 'orderby': None, 'orderby_on_limitby': False}"
p184
sS'self'
p185
S"<Set (agencies.name = 'Fox Hollow Child Care Centre and Family Home Agency')>"
p186
ssg70
I10071
sg71
(dp187
I10066
S"                                    attributes.get('join',None),"
p188
sI10067
S"                                    attributes.get('left',None),"
p189
sI10068
S"                                    attributes.get('orderby',None),"
p190
sI10069
S"                                    attributes.get('groupby',None))"
p191
sI10070
S'        fields = adapter.expand_all(fields, tablenames)'
p192
sI10071
S'        return adapter.select(self.query,fields,attributes)'
p193
sI10072
S''
sI10073
S'    def nested_select(self,*fields,**attributes):'
p194
sI10074
S'        return Expression(self.db,self._select(*fields,**attributes))'
p195
sI10075
S''
ssg83
S"(self=<Set (agencies.name = 'Fox Hollow Child Care Centre and Family Home Agency')>, *fields=[<gluon.dal.Field object>, <gluon.dal.Field object>, <gluon.dal.Field object>, <gluon.dal.Field object>, <gluon.dal.Field object>, <gluon.dal.Field object>, <gluon.dal.Field object>, <gluon.dal.Field object>, <gluon.dal.Field object>, <gluon.dal.Field object>, <gluon.dal.Field object>, <gluon.dal.Field object>, <gluon.dal.Field object>, <gluon.dal.Field object>, <gluon.dal.Field object>], **attributes={'for_update': False, 'limitby': (0, 1), 'orderby': None, 'orderby_on_limitby': False})"
p196
sg85
S'select'
p197
sa(dp198
g62
S'/home/www-data/web2py/gluon/dal.py'
p199
sg64
(dp200
S'fields'
p201
S'[<gluon.dal.Field object>, <gluon.dal.Field object>, <gluon.dal.Field object>, <gluon.dal.Field object>, <gluon.dal.Field object>, <gluon.dal.Field object>, <gluon.dal.Field object>, <gluon.dal.Field object>, <gluon.dal.Field object>, <gluon.dal.Field object>, <gluon.dal.Field object>, <gluon.dal.Field object>, <gluon.dal.Field object>, <gluon.dal.Field object>, <gluon.dal.Field object>]'
p202
sS'self'
p203
S'<gluon.dal.SQLiteAdapter object>'
p204
sS').select'
p205
S'<bound method SQLiteAdapter.select of <gluon.dal.SQLiteAdapter object>>'
p206
sS'attributes'
p207
S"{'for_update': False, 'limitby': (0, 1), 'orderby': None, 'orderby_on_limitby': False}"
p208
sS'global SQLiteAdapter'
p209
S"<class 'gluon.dal.SQLiteAdapter'>"
p210
sS'query'
p211
S"<Query (agencies.name = 'Fox Hollow Child Care Centre and Family Home Agency')>"
p212
sS'builtinsuper'
p213
S"<type 'super'>"
p214
ssg70
I2301
sg71
(dp215
I2304
S"    drivers = ('sqlite3','sqlite2')"
p216
sI2305
S''
sI2296
S'        Note that the entire database, rather than one record, is locked'
p217
sI2297
S'        (it will be locked eventually anyway by the following UPDATE).'
p218
sI2298
S'        """'
p219
sI2299
S"        if attributes.get('for_update', False) and not 'cache' in attributes:"
p220
sI2300
S"            self.execute('BEGIN IMMEDIATE TRANSACTION;')"
p221
sI2301
S'        return super(SQLiteAdapter, self).select(query, fields, attributes)'
p222
sI2302
S''
sI2303
S'class SpatiaLiteAdapter(SQLiteAdapter):'
p223
ssg83
S"(self=<gluon.dal.SQLiteAdapter object>, query=<Query (agencies.name = 'Fox Hollow Child Care Centre and Family Home Agency')>, fields=[<gluon.dal.Field object>, <gluon.dal.Field object>, <gluon.dal.Field object>, <gluon.dal.Field object>, <gluon.dal.Field object>, <gluon.dal.Field object>, <gluon.dal.Field object>, <gluon.dal.Field object>, <gluon.dal.Field object>, <gluon.dal.Field object>, <gluon.dal.Field object>, <gluon.dal.Field object>, <gluon.dal.Field object>, <gluon.dal.Field object>, <gluon.dal.Field object>], attributes={'for_update': False, 'limitby': (0, 1), 'orderby': None, 'orderby_on_limitby': False})"
p224
sg85
g197
sa(dp225
g62
S'/home/www-data/web2py/gluon/dal.py'
p226
sg64
(dp227
S'fields'
p228
S'[<gluon.dal.Field object>, <gluon.dal.Field object>, <gluon.dal.Field object>, <gluon.dal.Field object>, <gluon.dal.Field object>, <gluon.dal.Field object>, <gluon.dal.Field object>, <gluon.dal.Field object>, <gluon.dal.Field object>, <gluon.dal.Field object>, <gluon.dal.Field object>, <gluon.dal.Field object>, <gluon.dal.Field object>, <gluon.dal.Field object>, <gluon.dal.Field object>]'
p229
sS'self'
p230
S'<gluon.dal.SQLiteAdapter object>'
p231
sS'attributes'
p232
S"{'for_update': False, 'limitby': (0, 1), 'orderby': None, 'orderby_on_limitby': False}"
p233
sS'self._select_aux'
p234
S'<bound method SQLiteAdapter._select_aux of <gluon.dal.SQLiteAdapter object>>'
p235
sS'sql'
p236
S'"SELECT  agencies.id, agencies.childcare_provider...Centre and Family Home Agency\') LIMIT 1 OFFSET 0;"'
p237
ssg70
I1748
sg71
(dp238
I1743
S'            return cache_model('
p239
sI1744
S'                key,'
p240
sI1745
S'                lambda self=self,args=args:self._select_aux(*args),'
p241
sI1746
S'                time_expire)'
p242
sI1747
S'        else:'
p243
sI1748
S'            return self._select_aux(sql,fields,attributes)'
p244
sI1749
S''
sI1750
S'    def _count(self, query, distinct=None):'
p245
sI1751
S'        tablenames = self.tables(query)'
p246
sI1752
S'        if query:'
p247
ssg83
S"(self=<gluon.dal.SQLiteAdapter object>, query=<Query (agencies.name = 'Fox Hollow Child Care Centre and Family Home Agency')>, fields=[<gluon.dal.Field object>, <gluon.dal.Field object>, <gluon.dal.Field object>, <gluon.dal.Field object>, <gluon.dal.Field object>, <gluon.dal.Field object>, <gluon.dal.Field object>, <gluon.dal.Field object>, <gluon.dal.Field object>, <gluon.dal.Field object>, <gluon.dal.Field object>, <gluon.dal.Field object>, <gluon.dal.Field object>, <gluon.dal.Field object>, <gluon.dal.Field object>], attributes={'for_update': False, 'limitby': (0, 1), 'orderby': None, 'orderby_on_limitby': False})"
p248
sg85
g197
sa(dp249
g62
S'/home/www-data/web2py/gluon/dal.py'
p250
sg64
(dp251
S'self'
p252
S'<gluon.dal.SQLiteAdapter object>'
p253
sS'self.execute'
p254
S'<bound method SQLiteAdapter.execute of <gluon.dal.SQLiteAdapter object>>'
p255
sS'sql'
p256
S'"SELECT  agencies.id, agencies.childcare_provider...Centre and Family Home Agency\') LIMIT 1 OFFSET 0;"'
p257
ssg70
I1713
sg71
(dp258
I1708
S''
sI1709
S'    def _select_aux(self,sql,fields,attributes):'
p259
sI1710
S'        args_get = attributes.get'
p260
sI1711
S"        cache = args_get('cache',None)"
p261
sI1712
S'        if not cache:'
p262
sI1713
S'            self.execute(sql)'
p263
sI1714
S'            rows = self._fetchall()'
p264
sI1715
S'        else:'
p265
sI1716
S'            (cache_model, time_expire) = cache'
p266
sI1717
S"            key = self.uri + '/' + sql + '/rows'"
p267
ssg83
S'(self=<gluon.dal.SQLiteAdapter object>, sql="SELECT  agencies.id, agencies.childcare_provider...Centre and Family Home Agency\') LIMIT 1 OFFSET 0;", fields=[<gluon.dal.Field object>, <gluon.dal.Field object>, <gluon.dal.Field object>, <gluon.dal.Field object>, <gluon.dal.Field object>, <gluon.dal.Field object>, <gluon.dal.Field object>, <gluon.dal.Field object>, <gluon.dal.Field object>, <gluon.dal.Field object>, <gluon.dal.Field object>, <gluon.dal.Field object>, <gluon.dal.Field object>, <gluon.dal.Field object>, <gluon.dal.Field object>], attributes={\'for_update\': False, \'limitby\': (0, 1), \'orderby\': None, \'orderby_on_limitby\': False})'
p268
sg85
S'_select_aux'
p269
sa(dp270
g62
S'/home/www-data/web2py/gluon/dal.py'
p271
sg64
(dp272
S'a'
S'("SELECT  agencies.id, agencies.childcare_provider...Centre and Family Home Agency\') LIMIT 1 OFFSET 0;",)'
p273
sS'self'
p274
S'<gluon.dal.SQLiteAdapter object>'
p275
sS'b'
g45
sS'self.log_execute'
p276
S'<bound method SQLiteAdapter.log_execute of <gluon.dal.SQLiteAdapter object>>'
p277
ssg70
I1833
sg71
(dp278
I1828
S'        self.db._timings.append((command,time.time()-t0))'
p279
sI1829
S'        del self.db._timings[:-TIMINGSSIZE]'
p280
sI1830
S'        return ret'
p281
sI1831
S''
sI1832
S'    def execute(self, *a, **b):'
p282
sI1833
S'        return self.log_execute(*a, **b)'
p283
sI1834
S''
sI1835
S'    def represent(self, obj, fieldtype):'
p284
sI1836
S'        field_is_type = fieldtype.startswith'
p285
sI1837
S'        if isinstance(obj, CALLABLETYPES):'
p286
ssg83
S'(self=<gluon.dal.SQLiteAdapter object>, *a=("SELECT  agencies.id, agencies.childcare_provider...Centre and Family Home Agency\') LIMIT 1 OFFSET 0;",), **b={})'
p287
sg85
S'execute'
p288
sa(dp289
g62
S'/home/www-data/web2py/gluon/dal.py'
p290
sg64
(dp291
S'a'
S'("SELECT  agencies.id, agencies.childcare_provider...Centre and Family Home Agency\') LIMIT 1 OFFSET 0;",)'
p292
sS'b'
g45
sS'self'
p293
S'<gluon.dal.SQLiteAdapter object>'
p294
sS'ret'
p295
g106
sS'self.cursor'
p296
S'<pysqlite2.dbapi2.Cursor object>'
p297
sS'command'
p298
S'"SELECT  agencies.id, agencies.childcare_provider...Centre and Family Home Agency\') LIMIT 1 OFFSET 0;"'
p299
sS'self.cursor.execute'
p300
S'<built-in method execute of pysqlite2.dbapi2.Cursor object>'
p301
ssg70
I1827
sg71
(dp302
I1824
S"            LOGGER.debug('SQL: %s' % command)"
p303
sI1825
S'        self.db._lastsql = command'
p304
sI1826
S'        t0 = time.time()'
p305
sI1827
S'        ret = self.cursor.execute(command, *a[1:], **b)'
p306
sI1828
S'        self.db._timings.append((command,time.time()-t0))'
p307
sI1829
S'        del self.db._timings[:-TIMINGSSIZE]'
p308
sI1830
S'        return ret'
p309
sI1831
S''
sI1822
S'            command = self.filter_sql_command(command)'
p310
sI1823
S'        if self.db._debug:'
p311
ssg83
S'(self=<gluon.dal.SQLiteAdapter object>, *a=("SELECT  agencies.id, agencies.childcare_provider...Centre and Family Home Agency\') LIMIT 1 OFFSET 0;",), **b={})'
p312
sg85
S'log_execute'
p313
sa(dp314
g62
S'/usr/lib/python2.7/dist-packages/pysqlite2/dbapi2.py'
p315
sg64
(dp316
S'timepart'
p317
g106
sS'val.split'
p318
S'<built-in method split of str object>'
p319
sS'datepart'
p320
g106
sS'val'
p321
S"'07-Mar-13'"
p322
ssg70
I66
sg71
(dp323
I64
S''
sI65
S'    def convert_timestamp(val):'
p324
sI66
S'        datepart, timepart = val.split(" ")'
p325
sI67
S'        year, month, day = map(int, datepart.split("-"))'
p326
sI68
S'        timepart_full = timepart.split(".")'
p327
sI69
S'        hours, minutes, seconds = map(int, timepart_full[0].split(":"))'
p328
sI70
S'        if len(timepart_full) == 2:'
p329
sI61
S''
sI62
S'    def convert_date(val):'
p330
sI63
S'        return datetime.date(*map(int, val.split("-")))'
p331
ssg83
S"(val='07-Mar-13')"
p332
sg85
S'convert_timestamp'
p333
sasS'pyver'
p334
S'Python 2.7.3: /usr/bin/python (prefix: /usr)'
p335
sS'session'
p336
g57
(S's\xbb\x01\x00\x00<div><table><tr><td style="font-weight:bold;vertical-align:top;">flash</td><td style="vertical-align:top;">:</td><td><div>None</div></td></tr><tr><td style="font-weight:bold;vertical-align:top;">last_orderby</td><td style="vertical-align:top;">:</td><td><div>None</div></td></tr><tr><td style="font-weight:bold;vertical-align:top;">last_query</td><td style="vertical-align:top;">:</td><td><div>db.agencies.id&gt;0</div></td></tr></table></div>'
tRp337
sS'etype'
p338
S"<type 'exceptions.ValueError'>"
p339
sS'date'
p340
S'Fri Oct 11 15:04:24 2013'
p341
sS'response'
p342
g57
(S's\x892\x00\x00<div><table><tr><td style="font-weight:bold;vertical-align:top;">body</td><td style="vertical-align:top;">:</td><td><div>&lt;cStringIO.StringO object at 0x7f83d0ec7e68&gt;</div></td></tr><tr><td style="font-weight:bold;vertical-align:top;">cookies</td><td style="vertical-align:top;">:</td><td><div><table><tr><td style="font-weight:bold;vertical-align:top;">session_id_childcare</td><td style="vertical-align:top;">:</td><td><div>127.0.0.1-da67e77a-1d59-4435-ba01-70dff3bf30f1<table><tr><td style="font-weight:bold;vertical-align:top;">comment</td><td style="vertical-align:top;">:</td><td><div></div></td></tr><tr><td style="font-weight:bold;vertical-align:top;">domain</td><td style="vertical-align:top;">:</td><td><div></div></td></tr><tr><td style="font-weight:bold;vertical-align:top;">expires</td><td style="vertical-align:top;">:</td><td><div></div></td></tr><tr><td style="font-weight:bold;vertical-align:top;">httponly</td><td style="vertical-align:top;">:</td><td><div></div></td></tr><tr><td style="font-weight:bold;vertical-align:top;">max-age</td><td style="vertical-align:top;">:</td><td><div></div></td></tr><tr><td style="font-weight:bold;vertical-align:top;">path</td><td style="vertical-align:top;">:</td><td><div>/</div></td></tr><tr><td style="font-weight:bold;vertical-align:top;">secure</td><td style="vertical-align:top;">:</td><td><div></div></td></tr><tr><td style="font-weight:bold;vertical-align:top;">version</td><td style="vertical-align:top;">:</td><td><div></div></td></tr></table></div></td></tr></table></div></td></tr><tr><td style="font-weight:bold;vertical-align:top;">delimiters</td><td style="vertical-align:top;">:</td><td><div><table><tr><td><div>{{</div></td></tr><tr><td><div>}}</div></td></tr></table></div></td></tr><tr><td style="font-weight:bold;vertical-align:top;">files</td><td style="vertical-align:top;">:</td><td><div><table></table></div></td></tr><tr><td style="font-weight:bold;vertical-align:top;">flash</td><td style="vertical-align:top;">:</td><td><div>Your file was uploaded successfully. Proceeding to add data to database...</div></td></tr><tr><td style="font-weight:bold;vertical-align:top;">generic_patterns</td><td style="vertical-align:top;">:</td><td><div><table></table></div></td></tr><tr><td style="font-weight:bold;vertical-align:top;">google_analytics_id</td><td style="vertical-align:top;">:</td><td><div>None</div></td></tr><tr><td style="font-weight:bold;vertical-align:top;">headers</td><td style="vertical-align:top;">:</td><td><div><table><tr><td style="font-weight:bold;vertical-align:top;">X-Powered-By</td><td style="vertical-align:top;">:</td><td><div>web2py</div></td></tr></table></div></td></tr><tr><td style="font-weight:bold;vertical-align:top;">logo</td><td style="vertical-align:top;">:</td><td><div><a class="brand" data-w2p_disable_with="default" href="http://www.web2py.com/"><b>web<span>2</span>py</b>&trade;&nbsp;</a></div></td></tr><tr><td style="font-weight:bold;vertical-align:top;">menu</td><td style="vertical-align:top;">:</td><td><div><table><tr><td><div><table><tr><td><div>Home</div></td></tr><tr><td><div>False</div></td></tr><tr><td><div>/childcare/default/index</div></td></tr><tr><td><div><table></table></div></td></tr></table></div></td></tr><tr><td><div><table><tr><td><div><span class="highlighted">web2py</span></div></td></tr><tr><td><div>False</div></td></tr><tr><td><div>http://web2py.com</div></td></tr><tr><td><div><table><tr><td><div><table><tr><td><div>My Sites</div></td></tr><tr><td><div>False</div></td></tr><tr><td><div>/admin/default/site</div></td></tr></table></div></td></tr><tr><td><div><table><tr><td><div>This App</div></td></tr><tr><td><div>False</div></td></tr><tr><td><div>/admin/default/design/childcare</div></td></tr><tr><td><div>[(&lt;lazyT &#x27;Controller&#x27;&gt;, False, &#x27;/admin/default/edit/childcare/controllers/dataadmin.py&#x27;), (&lt;lazyT &#x27;View&#x27;&gt;, False, &#x27;/admin/default/edit/childcare/views/dataadmin/index.html&#x27;), (&lt;lazyT &#x27;Layout&#x27;&gt;, False, &#x27;/admin/default/edit/childcare/views/layout.html&#x27;), (&lt;lazyT &#x27;Stylesheet&#x27;&gt;, False, &#x27;/admin/default/edit/childcare/static/css/web2py.css&#x27;), (&lt;lazyT &#x27;DB Model&#x27;&gt;, False, &#x27;/admin/default/edit/childcare/models/db.py&#x27;), (&lt;lazyT &#x27;Menu Model&#x27;&gt;, False, &#x27;/admin/default/edit/childcare/models/menu.py&#x27;), (&lt;lazyT &#x27;Database&#x27;&gt;, False, &#x27;/childcare/appadmin/index&#x27;), (&lt;lazyT &#x27;Errors&#x27;&gt;, False, &#x27;/admin/default/errors/childcare&#x27;), (&lt;lazyT &#x27;About&#x27;&gt;, False, &#x27;/admin/default/about/childcare&#x27;)]</div></td></tr></table></div></td></tr><tr><td><div><table><tr><td><div>web2py.com</div></td></tr><tr><td><div>False</div></td></tr><tr><td><div>http://www.web2py.com</div></td></tr><tr><td><div>[(&lt;lazyT &#x27;Download&#x27;&gt;, False, &#x27;http://www.web2py.com/examples/default/download&#x27;), (&lt;lazyT &#x27;Support&#x27;&gt;, False, &#x27;http://www.web2py.com/examples/default/support&#x27;), (&lt;lazyT &#x27;Demo&#x27;&gt;, False, &#x27;http://web2py.com/demo_admin&#x27;), (&lt;lazyT &#x27;Quick Examples&#x27;&gt;, False, &#x27;http://web2py.com/examples/default/examples&#x27;), (&lt;lazyT &#x27;FAQ&#x27;&gt;, False, &#x27;http://web2py.com/AlterEgo&#x27;), (&lt;lazyT &#x27;Videos&#x27;&gt;, False, &#x27;http://www.web2py.com/examples/default/videos/&#x27;), (&lt;lazyT &#x27;Free Applications&#x27;&gt;, False, &#x27;http://web2py.com/appliances&#x27;), (&lt;lazyT &#x27;Plugins&#x27;&gt;, False, &#x27;http://web2py.com/plugins&#x27;), (&lt;lazyT &#x27;Layouts&#x27;&gt;, False, &#x27;http://web2py.com/layouts&#x27;), (&lt;lazyT &#x27;Recipes&#x27;&gt;, False, &#x27;http://web2pyslices.com/&#x27;), (&lt;lazyT &#x27;Semantic&#x27;&gt;, False, &#x27;http://web2py.com/semantic&#x27;)]</div></td></tr></table></div></td></tr><tr><td><div><table><tr><td><div>Documentation</div></td></tr><tr><td><div>False</div></td></tr><tr><td><div>http://www.web2py.com/book</div></td></tr><tr><td><div>[(&lt;lazyT &#x27;Preface&#x27;&gt;, False, &#x27;http://www.web2py.com/book/default/chapter/00&#x27;), (&lt;lazyT &#x27;Introduction&#x27;&gt;, False, &#x27;http://www.web2py.com/book/default/chapter/01&#x27;), (&lt;lazyT &#x27;Python&#x27;&gt;, False, &#x27;http://www.web2py.com/book/default/chapter/02&#x27;), (&lt;lazyT &#x27;Overview&#x27;&gt;, False, &#x27;http://www.web2py.com/book/default/chapter/03&#x27;), (&lt;lazyT &#x27;The Core&#x27;&gt;, False, &#x27;http://www.web2py.com/book/default/chapter/04&#x27;), (&lt;lazyT &#x27;The Views&#x27;&gt;, False, &#x27;http://www.web2py.com/book/default/chapter/05&#x27;), (&lt;lazyT &#x27;Database&#x27;&gt;, False, &#x27;http://www.web2py.com/book/default/chapter/06&#x27;), (&lt;lazyT &#x27;Forms and Validators&#x27;&gt;, False, &#x27;http://www.web2py.com/book/default/chapter/07&#x27;), (&lt;lazyT &#x27;Email and SMS&#x27;&gt;, False, &#x27;http://www.web2py.com/book/default/chapter/08&#x27;), (&lt;lazyT &#x27;Access Control&#x27;&gt;, False, &#x27;http://www.web2py.com/book/default/chapter/09&#x27;), (&lt;lazyT &#x27;Services&#x27;&gt;, False, &#x27;http://www.web2py.com/book/default/chapter/10&#x27;), (&lt;lazyT &#x27;Ajax Recipes&#x27;&gt;, False, &#x27;http://www.web2py.com/book/default/chapter/11&#x27;), (&lt;lazyT &#x27;Components and Plugins&#x27;&gt;, False, &#x27;http://www.web2py.com/book/default/chapter/12&#x27;), (&lt;lazyT &#x27;Deployment Recipes&#x27;&gt;, False, &#x27;http://www.web2py.com/book/default/chapter/13&#x27;), (&lt;lazyT &#x27;Other Recipes&#x27;&gt;, False, &#x27;http://www.web2py.com/book/default/chapter/14&#x27;), (&lt;lazyT &#x27;Buy this book&#x27;&gt;, False, &#x27;http://stores.lulu.com/web2py&#x27;)]</div></td></tr></table></div></td></tr><tr><td><div><table><tr><td><div>Community</div></td></tr><tr><td><div>False</div></td></tr><tr><td><div>None</div></td></tr><tr><td><div>[(&lt;lazyT &#x27;Groups&#x27;&gt;, False, &#x27;http://www.web2py.com/examples/default/usergroups&#x27;), (&lt;lazyT &#x27;Twitter&#x27;&gt;, False, &#x27;http://twitter.com/web2py&#x27;), (&lt;lazyT &#x27;Live Chat&#x27;&gt;, False, &#x27;http://webchat.freenode.net/?channels=web2py&#x27;)]</div></td></tr></table></div></td></tr><tr><td><div><table><tr><td><div>Plugins</div></td></tr><tr><td><div>False</div></td></tr><tr><td><div>None</div></td></tr><tr><td><div>[(&#x27;plugin_wiki&#x27;, False, &#x27;http://web2py.com/examples/default/download&#x27;), (&lt;lazyT &#x27;Other Plugins&#x27;&gt;, False, &#x27;http://web2py.com/plugins&#x27;), (&lt;lazyT &#x27;Layout Plugins&#x27;&gt;, False, &#x27;http://web2py.com/layouts&#x27;)]</div></td></tr></table></div></td></tr></table></div></td></tr></table></div></td></tr></table></div></td></tr><tr><td style="font-weight:bold;vertical-align:top;">meta</td><td style="vertical-align:top;">:</td><td><div><table><tr><td style="font-weight:bold;vertical-align:top;">author</td><td style="vertical-align:top;">:</td><td><div>Your Name &lt;you@example.com&gt;</div></td></tr><tr><td style="font-weight:bold;vertical-align:top;">description</td><td style="vertical-align:top;">:</td><td><div>a cool new app</div></td></tr><tr><td style="font-weight:bold;vertical-align:top;">generator</td><td style="vertical-align:top;">:</td><td><div>Web2py Web Framework</div></td></tr><tr><td style="font-weight:bold;vertical-align:top;">keywords</td><td style="vertical-align:top;">:</td><td><div>web2py, python, framework</div></td></tr></table></div></td></tr><tr><td style="font-weight:bold;vertical-align:top;">models_to_run</td><td style="vertical-align:top;">:</td><td><div><table><tr><td><div>^\\w+\\.py$</div></td></tr><tr><td><div>^dataadmin/\\w+\\.py$</div></td></tr><tr><td><div>^dataadmin/index/\\w+\\.py$</div></td></tr></table></div></td></tr><tr><td style="font-weight:bold;vertical-align:top;">postprocessing</td><td style="vertical-align:top;">:</td><td><div><table></table></div></td></tr><tr><td style="font-weight:bold;vertical-align:top;">session_client</td><td style="vertical-align:top;">:</td><td><div>127.0.0.1</div></td></tr><tr><td style="font-weight:bold;vertical-align:top;">session_cookie_compression_level</td><td style="vertical-align:top;">:</td><td><div>None</div></td></tr><tr><td style="font-weight:bold;vertical-align:top;">session_cookie_expires</td><td style="vertical-align:top;">:</td><td><div>None</div></td></tr><tr><td style="font-weight:bold;vertical-align:top;">session_cookie_key</td><td style="vertical-align:top;">:</td><td><div>None</div></td></tr><tr><td style="font-weight:bold;vertical-align:top;">session_data_name</td><td style="vertical-align:top;">:</td><td><div>session_data_childcare</div></td></tr><tr><td style="font-weight:bold;vertical-align:top;">session_file</td><td style="vertical-align:top;">:</td><td><div>&lt;open file &#x27;/home/www-data/web2py/applications/childcare/sessions/127.0.0.1-da67e77a-1d59-4435-ba01-70dff3bf30f1&#x27;, mode &#x27;rb+&#x27; at 0x7f83d0ecf780&gt;</div></td></tr><tr><td style="font-weight:bold;vertical-align:top;">session_filename</td><td style="vertical-align:top;">:</td><td><div>/home/www-data/web2py/applications/childcare/sessions/127.0.0.1-da67e77a-1d59-4435-ba01-70dff3bf30f1</div></td></tr><tr><td style="font-weight:bold;vertical-align:top;">session_hash</td><td style="vertical-align:top;">:</td><td><div>c5953720b3339c31172500bb13bdc2bc</div></td></tr><tr><td style="font-weight:bold;vertical-align:top;">session_id</td><td style="vertical-align:top;">:</td><td><div>127.0.0.1-da67e77a-1d59-4435-ba01-70dff3bf30f1</div></td></tr><tr><td style="font-weight:bold;vertical-align:top;">session_id_name</td><td style="vertical-align:top;">:</td><td><div>session_id_childcare</div></td></tr><tr><td style="font-weight:bold;vertical-align:top;">session_locked</td><td style="vertical-align:top;">:</td><td><div>True</div></td></tr><tr><td style="font-weight:bold;vertical-align:top;">session_masterapp</td><td style="vertical-align:top;">:</td><td><div>childcare</div></td></tr><tr><td style="font-weight:bold;vertical-align:top;">session_new</td><td style="vertical-align:top;">:</td><td><div>False</div></td></tr><tr><td style="font-weight:bold;vertical-align:top;">session_storage_type</td><td style="vertical-align:top;">:</td><td><div>file</div></td></tr><tr><td style="font-weight:bold;vertical-align:top;">status</td><td style="vertical-align:top;">:</td><td><div>200</div></td></tr><tr><td style="font-weight:bold;vertical-align:top;">subtitle</td><td style="vertical-align:top;">:</td><td><div>customize me!</div></td></tr><tr><td style="font-weight:bold;vertical-align:top;">title</td><td style="vertical-align:top;">:</td><td><div>Childcare</div></td></tr><tr><td style="font-weight:bold;vertical-align:top;">view</td><td style="vertical-align:top;">:</td><td><div>dataadmin/index.html</div></td></tr></table></div>'
tRp343
sS'locals'
p344
(dp345
S'val'
p346
S"'07-Mar-13'"
p347
sssS'traceback'
p348
S'Traceback (most recent call last):\n  File "/home/www-data/web2py/gluon/restricted.py", line 217, in restricted\n    exec ccode in environment\n  File "/home/www-data/web2py/applications/childcare/controllers/dataadmin.py", line 79, in <module>\n  File "/home/www-data/web2py/gluon/globals.py", line 371, in <lambda>\n    self._caller = lambda f: f()\n  File "/home/www-data/web2py/applications/childcare/controllers/dataadmin.py", line 37, in index\n    agency_test = db.agencies(name=row[1])\n  File "/home/www-data/web2py/gluon/dal.py", line 8579, in __call__\n    return self._db(query).select(limitby=(0,1),for_update=for_update, orderby=orderby, orderby_on_limitby=False).first()\n  File "/home/www-data/web2py/gluon/dal.py", line 10071, in select\n    return adapter.select(self.query,fields,attributes)\n  File "/home/www-data/web2py/gluon/dal.py", line 2301, in select\n    return super(SQLiteAdapter, self).select(query, fields, attributes)\n  File "/home/www-data/web2py/gluon/dal.py", line 1748, in select\n    return self._select_aux(sql,fields,attributes)\n  File "/home/www-data/web2py/gluon/dal.py", line 1713, in _select_aux\n    self.execute(sql)\n  File "/home/www-data/web2py/gluon/dal.py", line 1833, in execute\n    return self.log_execute(*a, **b)\n  File "/home/www-data/web2py/gluon/dal.py", line 1827, in log_execute\n    ret = self.cursor.execute(command, *a[1:], **b)\n  File "/usr/lib/python2.7/dist-packages/pysqlite2/dbapi2.py", line 66, in convert_timestamp\n    datepart, timepart = val.split(" ")\nValueError: need more than 1 value to unpack\n'
p349
s.