(dp1
S'output'
p2
S'<class \'gluon.contrib.pg8000.errors.ProgrammingError\'> (\'ERROR\', \'42P07\', \'relation "geolocation" already exists\')'
p3
sS'layer'
p4
S'/home/www-data/web2py/applications/childcare/models/db.py'
p5
sS'code'
p6
S"from gluon.tools import *\nfrom gluon.dal import DAL, Field, geoPoint, geoLine, geoPolygon\nauth = Auth(db)\nauth.define_tables()\ncrud = Crud(db)\n\ndb.define_table('facility_types',\n    Field('name', unique=True, requires=IS_NOT_EMPTY()),\n    Field('created_on', 'datetime', default=request.now),\n    Field('created_by', 'reference auth_user', default=auth.user_id),\n    format='%(name)s') \n\ndb.define_table('agencies',\n    Field('childcare_provider_id', 'integer', requires=IS_NOT_EMPTY(), unique=True),\n    Field('facility_type_id', 'reference facility_types'),\n    Field('name', unique=True, requires=IS_NOT_EMPTY()),\n    Field('street', requires=IS_NOT_EMPTY()),\n    Field('county', requires=IS_NOT_EMPTY()),\n    Field('email', requires=IS_NOT_EMPTY()),\n    Field('min_age', 'integer', requires=IS_NOT_EMPTY()),\n    Field('max_age', 'integer', requires=IS_NOT_EMPTY()),\n    Field('capacity', 'integer', requires=IS_NOT_EMPTY()),\n    Field('annual_inspection_date', 'datetime', requires=IS_NOT_EMPTY()),\n    Field('unannounced_inspection_date', 'datetime'),\n    Field('in_compliance', 'boolean'),\n    Field('created_on', 'datetime', default=request.now),\n    Field('created_by', 'reference auth_user', default=auth.user_id),\n    format='%(name)s')\n\ndb.define_table('phone_number_types',\n    Field('name', requires=IS_NOT_EMPTY()),\n    Field('created_on', 'datetime', default=request.now),\n    Field('created_by', 'reference auth_user', default=auth.user_id),\n    format='%(name)s')     \n\ndb.define_table('phone_numbers',\n    Field('agency_id', 'references agencies'),\n    Field('phone_number_type_id', 'reference phone_number_types'),\n    Field('agency_id', 'reference agencies'),\n    Field('phone_number_type_id', 'references phone_number_types'),\n    Field('phone_number', requires=IS_NOT_EMPTY()),\n    Field('created_on', 'datetime', default=request.now),\n    Field('created_by', 'reference auth_user', default=auth.user_id),\n    format='%(phone_number)s') \n\ndb.define_table('program_types',\n    Field('agency_id', 'reference agencies'),\n    Field('name', requires=IS_NOT_EMPTY()),\n    Field('created_on', 'datetime', default=request.now),\n    Field('created_by', 'reference auth_user', default=auth.user_id),\n    format='%(name)s')\n\n\ndb.define_table('agency_program_types',\n                Field('agency_id', 'reference agencies'),\n                Field('program_type_id', 'reference program_types')\n)\n\ndb.define_table('files',\n    Field('filename', unique=True),\n    Field('file', 'upload'),\n    format = '%(filename)s')\n\ndb.define_table('geolocation',\n    Field('agency_id', 'references agencies'),\n    Field('location', 'geometry()')    \n    )\n\n\ndb.agencies.facility_type_id.requires = IS_IN_DB(db, db.facility_types.id, '%(name)s')\ndb.phone_numbers.phone_number_type_id.requires = IS_IN_DB(db, db.phone_number_types.id, '%(name)s')\n\n"
p7
sS'snapshot'
p8
(dp9
S'exception'
p10
(dp11
S'__module__'
p12
S"'gluon.contrib.pg8000.errors'"
p13
sS'__getslice__'
p14
S"<method-wrapper '__getslice__' of ProgrammingError object>"
p15
sS'__str__'
p16
S"<method-wrapper '__str__' of ProgrammingError object>"
p17
sS'__reduce__'
p18
S'<built-in method __reduce__ of ProgrammingError object>'
p19
sS'__dict__'
p20
S'{}'
p21
sS'__sizeof__'
p22
S'<built-in method __sizeof__ of ProgrammingError object>'
p23
sS'__weakref__'
p24
S'None'
p25
sS'__init__'
p26
S"<method-wrapper '__init__' of ProgrammingError object>"
p27
sS'__setattr__'
p28
S"<method-wrapper '__setattr__' of ProgrammingError object>"
p29
sS'__reduce_ex__'
p30
S'<built-in method __reduce_ex__ of ProgrammingError object>'
p31
sS'__new__'
p32
S'<built-in method __new__ of type object>'
p33
sS'__format__'
p34
S'<built-in method __format__ of ProgrammingError object>'
p35
sS'__class__'
p36
S"<class 'gluon.contrib.pg8000.errors.ProgrammingError'>"
p37
sS'__doc__'
p38
S'None'
p39
sS'__getitem__'
p40
S"<method-wrapper '__getitem__' of ProgrammingError object>"
p41
sS'__setstate__'
p42
S'<built-in method __setstate__ of ProgrammingError object>'
p43
sS'__getattribute__'
p44
S"<method-wrapper '__getattribute__' of ProgrammingError object>"
p45
sS'args'
p46
S'(\'ERROR\', \'42P07\', \'relation "geolocation" already exists\')'
p47
sS'__subclasshook__'
p48
S'<built-in method __subclasshook__ of type object>'
p49
sS'__unicode__'
p50
S'<built-in method __unicode__ of ProgrammingError object>'
p51
sS'__delattr__'
p52
S"<method-wrapper '__delattr__' of ProgrammingError object>"
p53
sS'__repr__'
p54
S"<method-wrapper '__repr__' of ProgrammingError object>"
p55
sS'__hash__'
p56
S"<method-wrapper '__hash__' of ProgrammingError object>"
p57
ssS'evalue'
p58
S'(\'ERROR\', \'42P07\', \'relation "geolocation" already exists\')'
p59
sS'request'
p60
cgluon.html
XML_unpickle
p61
(S's\xf1o\x00\x00<div><table><tr><td style="font-weight:bold;vertical-align:top;">ajax</td><td style="vertical-align:top;">:</td><td><div>False</div></td></tr><tr><td style="font-weight:bold;vertical-align:top;">application</td><td style="vertical-align:top;">:</td><td><div>childcare</div></td></tr><tr><td style="font-weight:bold;vertical-align:top;">args</td><td style="vertical-align:top;">:</td><td><div><table></table></div></td></tr><tr><td style="font-weight:bold;vertical-align:top;">cid</td><td style="vertical-align:top;">:</td><td><div>None</div></td></tr><tr><td style="font-weight:bold;vertical-align:top;">client</td><td style="vertical-align:top;">:</td><td><div>127.0.0.1</div></td></tr><tr><td style="font-weight:bold;vertical-align:top;">controller</td><td style="vertical-align:top;">:</td><td><div>appadmin</div></td></tr><tr><td style="font-weight:bold;vertical-align:top;">cookies</td><td style="vertical-align:top;">:</td><td><div><table><tr><td style="font-weight:bold;vertical-align:top;">session_id_admin</td><td style="vertical-align:top;">:</td><td><div>127.0.0.1-97288c8a-75d9-49f5-b6a5-8ecd657802e6<table><tr><td style="font-weight:bold;vertical-align:top;">comment</td><td style="vertical-align:top;">:</td><td><div></div></td></tr><tr><td style="font-weight:bold;vertical-align:top;">domain</td><td style="vertical-align:top;">:</td><td><div></div></td></tr><tr><td style="font-weight:bold;vertical-align:top;">expires</td><td style="vertical-align:top;">:</td><td><div></div></td></tr><tr><td style="font-weight:bold;vertical-align:top;">httponly</td><td style="vertical-align:top;">:</td><td><div></div></td></tr><tr><td style="font-weight:bold;vertical-align:top;">max-age</td><td style="vertical-align:top;">:</td><td><div></div></td></tr><tr><td style="font-weight:bold;vertical-align:top;">path</td><td style="vertical-align:top;">:</td><td><div></div></td></tr><tr><td style="font-weight:bold;vertical-align:top;">secure</td><td style="vertical-align:top;">:</td><td><div></div></td></tr><tr><td style="font-weight:bold;vertical-align:top;">version</td><td style="vertical-align:top;">:</td><td><div></div></td></tr></table></div></td></tr><tr><td style="font-weight:bold;vertical-align:top;">session_id_childcare</td><td style="vertical-align:top;">:</td><td><div>127.0.0.1-da67e77a-1d59-4435-ba01-70dff3bf30f1<table><tr><td style="font-weight:bold;vertical-align:top;">comment</td><td style="vertical-align:top;">:</td><td><div></div></td></tr><tr><td style="font-weight:bold;vertical-align:top;">domain</td><td style="vertical-align:top;">:</td><td><div></div></td></tr><tr><td style="font-weight:bold;vertical-align:top;">expires</td><td style="vertical-align:top;">:</td><td><div></div></td></tr><tr><td style="font-weight:bold;vertical-align:top;">httponly</td><td style="vertical-align:top;">:</td><td><div></div></td></tr><tr><td style="font-weight:bold;vertical-align:top;">max-age</td><td style="vertical-align:top;">:</td><td><div></div></td></tr><tr><td style="font-weight:bold;vertical-align:top;">path</td><td style="vertical-align:top;">:</td><td><div></div></td></tr><tr><td style="font-weight:bold;vertical-align:top;">secure</td><td style="vertical-align:top;">:</td><td><div></div></td></tr><tr><td style="font-weight:bold;vertical-align:top;">version</td><td style="vertical-align:top;">:</td><td><div></div></td></tr></table></div></td></tr><tr><td style="font-weight:bold;vertical-align:top;">session_id_images</td><td style="vertical-align:top;">:</td><td><div>127.0.0.1-7f4a2b06-f482-40dc-b551-a8d134f0608c<table><tr><td style="font-weight:bold;vertical-align:top;">comment</td><td style="vertical-align:top;">:</td><td><div></div></td></tr><tr><td style="font-weight:bold;vertical-align:top;">domain</td><td style="vertical-align:top;">:</td><td><div></div></td></tr><tr><td style="font-weight:bold;vertical-align:top;">expires</td><td style="vertical-align:top;">:</td><td><div></div></td></tr><tr><td style="font-weight:bold;vertical-align:top;">httponly</td><td style="vertical-align:top;">:</td><td><div></div></td></tr><tr><td style="font-weight:bold;vertical-align:top;">max-age</td><td style="vertical-align:top;">:</td><td><div></div></td></tr><tr><td style="font-weight:bold;vertical-align:top;">path</td><td style="vertical-align:top;">:</td><td><div></div></td></tr><tr><td style="font-weight:bold;vertical-align:top;">secure</td><td style="vertical-align:top;">:</td><td><div></div></td></tr><tr><td style="font-weight:bold;vertical-align:top;">version</td><td style="vertical-align:top;">:</td><td><div></div></td></tr></table></div></td></tr><tr><td style="font-weight:bold;vertical-align:top;">session_id_test</td><td style="vertical-align:top;">:</td><td><div>127.0.0.1-4e69ca56-aa6c-4e80-83a8-edc6c482e1bd<table><tr><td style="font-weight:bold;vertical-align:top;">comment</td><td style="vertical-align:top;">:</td><td><div></div></td></tr><tr><td style="font-weight:bold;vertical-align:top;">domain</td><td style="vertical-align:top;">:</td><td><div></div></td></tr><tr><td style="font-weight:bold;vertical-align:top;">expires</td><td style="vertical-align:top;">:</td><td><div></div></td></tr><tr><td style="font-weight:bold;vertical-align:top;">httponly</td><td style="vertical-align:top;">:</td><td><div></div></td></tr><tr><td style="font-weight:bold;vertical-align:top;">max-age</td><td style="vertical-align:top;">:</td><td><div></div></td></tr><tr><td style="font-weight:bold;vertical-align:top;">path</td><td style="vertical-align:top;">:</td><td><div></div></td></tr><tr><td style="font-weight:bold;vertical-align:top;">secure</td><td style="vertical-align:top;">:</td><td><div></div></td></tr><tr><td style="font-weight:bold;vertical-align:top;">version</td><td style="vertical-align:top;">:</td><td><div></div></td></tr></table></div></td></tr><tr><td style="font-weight:bold;vertical-align:top;">session_id_welcome</td><td style="vertical-align:top;">:</td><td><div>127.0.0.1-e69f2ff8-6808-4500-b876-7d42b74b55c0<table><tr><td style="font-weight:bold;vertical-align:top;">comment</td><td style="vertical-align:top;">:</td><td><div></div></td></tr><tr><td style="font-weight:bold;vertical-align:top;">domain</td><td style="vertical-align:top;">:</td><td><div></div></td></tr><tr><td style="font-weight:bold;vertical-align:top;">expires</td><td style="vertical-align:top;">:</td><td><div></div></td></tr><tr><td style="font-weight:bold;vertical-align:top;">httponly</td><td style="vertical-align:top;">:</td><td><div></div></td></tr><tr><td style="font-weight:bold;vertical-align:top;">max-age</td><td style="vertical-align:top;">:</td><td><div></div></td></tr><tr><td style="font-weight:bold;vertical-align:top;">path</td><td style="vertical-align:top;">:</td><td><div></div></td></tr><tr><td style="font-weight:bold;vertical-align:top;">secure</td><td style="vertical-align:top;">:</td><td><div></div></td></tr><tr><td style="font-weight:bold;vertical-align:top;">version</td><td style="vertical-align:top;">:</td><td><div></div></td></tr></table></div></td></tr></table></div></td></tr><tr><td style="font-weight:bold;vertical-align:top;">env</td><td style="vertical-align:top;">:</td><td><div><table><tr><td style="font-weight:bold;vertical-align:top;">DOCUMENT_ROOT</td><td style="vertical-align:top;">:</td><td><div>/var/www</div></td></tr><tr><td style="font-weight:bold;vertical-align:top;">GATEWAY_INTERFACE</td><td style="vertical-align:top;">:</td><td><div>CGI/1.1</div></td></tr><tr><td style="font-weight:bold;vertical-align:top;">HTTP_ACCEPT</td><td style="vertical-align:top;">:</td><td><div>text/html,application/xhtml+xml,application/xml;q=0.9,image/webp,*/*;q=0.8</div></td></tr><tr><td style="font-weight:bold;vertical-align:top;">HTTP_ACCEPT_ENCODING</td><td style="vertical-align:top;">:</td><td><div>gzip,deflate,sdch</div></td></tr><tr><td style="font-weight:bold;vertical-align:top;">HTTP_ACCEPT_LANGUAGE</td><td style="vertical-align:top;">:</td><td><div>en-GB,en-US;q=0.8,en;q=0.6</div></td></tr><tr><td style="font-weight:bold;vertical-align:top;">HTTP_CONNECTION</td><td style="vertical-align:top;">:</td><td><div>keep-alive</div></td></tr><tr><td style="font-weight:bold;vertical-align:top;">HTTP_COOKIE</td><td style="vertical-align:top;">:</td><td><div>session_id_welcome=127.0.0.1-e69f2ff8-6808-4500-b876-7d42b74b55c0; session_id_images=127.0.0.1-7f4a2b06-f482-40dc-b551-a8d134f0608c; session_id_test=127.0.0.1-4e69ca56-aa6c-4e80-83a8-edc6c482e1bd; session_id_childcare=127.0.0.1-da67e77a-1d59-4435-ba01-70dff3bf30f1; session_id_admin=127.0.0.1-97288c8a-75d9-49f5-b6a5-8ecd657802e6</div></td></tr><tr><td style="font-weight:bold;vertical-align:top;">HTTP_HOST</td><td style="vertical-align:top;">:</td><td><div>localhost</div></td></tr><tr><td style="font-weight:bold;vertical-align:top;">HTTP_REFERER</td><td style="vertical-align:top;">:</td><td><div>https://localhost/admin/default/design/childcare</div></td></tr><tr><td style="font-weight:bold;vertical-align:top;">HTTP_USER_AGENT</td><td style="vertical-align:top;">:</td><td><div>Mozilla/5.0 (X11; Linux x86_64) AppleWebKit/537.36 (KHTML, like Gecko) Chrome/30.0.1599.66 Safari/537.36</div></td></tr><tr><td style="font-weight:bold;vertical-align:top;">PATH_INFO</td><td style="vertical-align:top;">:</td><td><div>/childcare/appadmin/index</div></td></tr><tr><td style="font-weight:bold;vertical-align:top;">PATH_TRANSLATED</td><td style="vertical-align:top;">:</td><td><div>/home/www-data/web2py/wsgihandler.py/childcare/appadmin/index</div></td></tr><tr><td style="font-weight:bold;vertical-align:top;">QUERY_STRING</td><td style="vertical-align:top;">:</td><td><div></div></td></tr><tr><td style="font-weight:bold;vertical-align:top;">REMOTE_ADDR</td><td style="vertical-align:top;">:</td><td><div>127.0.0.1</div></td></tr><tr><td style="font-weight:bold;vertical-align:top;">REMOTE_PORT</td><td style="vertical-align:top;">:</td><td><div>41277</div></td></tr><tr><td style="font-weight:bold;vertical-align:top;">REQUEST_METHOD</td><td style="vertical-align:top;">:</td><td><div>GET</div></td></tr><tr><td style="font-weight:bold;vertical-align:top;">REQUEST_URI</td><td style="vertical-align:top;">:</td><td><div>/childcare/appadmin/index</div></td></tr><tr><td style="font-weight:bold;vertical-align:top;">SCRIPT_FILENAME</td><td style="vertical-align:top;">:</td><td><div>/home/www-data/web2py/wsgihandler.py</div></td></tr><tr><td style="font-weight:bold;vertical-align:top;">SCRIPT_NAME</td><td style="vertical-align:top;">:</td><td><div></div></td></tr><tr><td style="font-weight:bold;vertical-align:top;">SERVER_ADDR</td><td style="vertical-align:top;">:</td><td><div>127.0.0.1</div></td></tr><tr><td style="font-weight:bold;vertical-align:top;">SERVER_ADMIN</td><td style="vertical-align:top;">:</td><td><div>[no address given]</div></td></tr><tr><td style="font-weight:bold;vertical-align:top;">SERVER_NAME</td><td style="vertical-align:top;">:</td><td><div>localhost</div></td></tr><tr><td style="font-weight:bold;vertical-align:top;">SERVER_PORT</td><td style="vertical-align:top;">:</td><td><div>443</div></td></tr><tr><td style="font-weight:bold;vertical-align:top;">SERVER_PROTOCOL</td><td style="vertical-align:top;">:</td><td><div>HTTP/1.1</div></td></tr><tr><td style="font-weight:bold;vertical-align:top;">SERVER_SIGNATURE</td><td style="vertical-align:top;">:</td><td><div>&lt;address&gt;Apache/2.2.22 (Ubuntu) Server at localhost Port 443&lt;/address&gt;\n</div></td></tr><tr><td style="font-weight:bold;vertical-align:top;">SERVER_SOFTWARE</td><td style="vertical-align:top;">:</td><td><div>Apache/2.2.22 (Ubuntu)</div></td></tr><tr><td style="font-weight:bold;vertical-align:top;">SSL_TLS_SNI</td><td style="vertical-align:top;">:</td><td><div>localhost</div></td></tr><tr><td style="font-weight:bold;vertical-align:top;">app_folders</td><td style="vertical-align:top;">:</td><td><div>set([&#x27;/home/www-data/web2py/applications/childcare/&#x27;, &#x27;/home/www-data/web2py/applications/admin/&#x27;])</div></td></tr><tr><td style="font-weight:bold;vertical-align:top;">applications_parent</td><td style="vertical-align:top;">:</td><td><div>/home/www-data/web2py</div></td></tr><tr><td style="font-weight:bold;vertical-align:top;">db_sessions</td><td style="vertical-align:top;">:</td><td><div>set([])</div></td></tr><tr><td style="font-weight:bold;vertical-align:top;">debugging</td><td style="vertical-align:top;">:</td><td><div>False</div></td></tr><tr><td style="font-weight:bold;vertical-align:top;">document_root</td><td style="vertical-align:top;">:</td><td><div>/var/www</div></td></tr><tr><td style="font-weight:bold;vertical-align:top;">gateway_interface</td><td style="vertical-align:top;">:</td><td><div>CGI/1.1</div></td></tr><tr><td style="font-weight:bold;vertical-align:top;">gluon_parent</td><td style="vertical-align:top;">:</td><td><div>/home/www-data/web2py</div></td></tr><tr><td style="font-weight:bold;vertical-align:top;">http_accept</td><td style="vertical-align:top;">:</td><td><div>text/html,application/xhtml+xml,application/xml;q=0.9,image/webp,*/*;q=0.8</div></td></tr><tr><td style="font-weight:bold;vertical-align:top;">http_accept_encoding</td><td style="vertical-align:top;">:</td><td><div>gzip,deflate,sdch</div></td></tr><tr><td style="font-weight:bold;vertical-align:top;">http_accept_language</td><td style="vertical-align:top;">:</td><td><div>en-GB,en-US;q=0.8,en;q=0.6</div></td></tr><tr><td style="font-weight:bold;vertical-align:top;">http_connection</td><td style="vertical-align:top;">:</td><td><div>keep-alive</div></td></tr><tr><td style="font-weight:bold;vertical-align:top;">http_cookie</td><td style="vertical-align:top;">:</td><td><div>session_id_welcome=127.0.0.1-e69f2ff8-6808-4500-b876-7d42b74b55c0; session_id_images=127.0.0.1-7f4a2b06-f482-40dc-b551-a8d134f0608c; session_id_test=127.0.0.1-4e69ca56-aa6c-4e80-83a8-edc6c482e1bd; session_id_childcare=127.0.0.1-da67e77a-1d59-4435-ba01-70dff3bf30f1; session_id_admin=127.0.0.1-97288c8a-75d9-49f5-b6a5-8ecd657802e6</div></td></tr><tr><td style="font-weight:bold;vertical-align:top;">http_host</td><td style="vertical-align:top;">:</td><td><div>localhost</div></td></tr><tr><td style="font-weight:bold;vertical-align:top;">http_referer</td><td style="vertical-align:top;">:</td><td><div>https://localhost/admin/default/design/childcare</div></td></tr><tr><td style="font-weight:bold;vertical-align:top;">http_user_agent</td><td style="vertical-align:top;">:</td><td><div>Mozilla/5.0 (X11; Linux x86_64) AppleWebKit/537.36 (KHTML, like Gecko) Chrome/30.0.1599.66 Safari/537.36</div></td></tr><tr><td style="font-weight:bold;vertical-align:top;">is_jython</td><td style="vertical-align:top;">:</td><td><div>False</div></td></tr><tr><td style="font-weight:bold;vertical-align:top;">is_pypy</td><td style="vertical-align:top;">:</td><td><div>False</div></td></tr><tr><td style="font-weight:bold;vertical-align:top;">is_source</td><td style="vertical-align:top;">:</td><td><div>True</div></td></tr><tr><td style="font-weight:bold;vertical-align:top;">local_hosts</td><td style="vertical-align:top;">:</td><td><div><table><tr><td><div>mystic</div></td></tr><tr><td><div>::ffff:127.0.0.1</div></td></tr><tr><td><div>::1</div></td></tr><tr><td><div>localhost</div></td></tr><tr><td><div>127.0.1.1</div></td></tr><tr><td><div>127.0.0.1</div></td></tr></table></div></td></tr><tr><td style="font-weight:bold;vertical-align:top;">mod_wsgi.application_group</td><td style="vertical-align:top;">:</td><td><div>127.0.1.1|</div></td></tr><tr><td style="font-weight:bold;vertical-align:top;">mod_wsgi.callable_object</td><td style="vertical-align:top;">:</td><td><div>application</div></td></tr><tr><td style="font-weight:bold;vertical-align:top;">mod_wsgi.enable_sendfile</td><td style="vertical-align:top;">:</td><td><div>0</div></td></tr><tr><td style="font-weight:bold;vertical-align:top;">mod_wsgi.handler_script</td><td style="vertical-align:top;">:</td><td><div></div></td></tr><tr><td style="font-weight:bold;vertical-align:top;">mod_wsgi.input_chunked</td><td style="vertical-align:top;">:</td><td><div>0</div></td></tr><tr><td style="font-weight:bold;vertical-align:top;">mod_wsgi.listener_host</td><td style="vertical-align:top;">:</td><td><div></div></td></tr><tr><td style="font-weight:bold;vertical-align:top;">mod_wsgi.listener_port</td><td style="vertical-align:top;">:</td><td><div>443</div></td></tr><tr><td style="font-weight:bold;vertical-align:top;">mod_wsgi.process_group</td><td style="vertical-align:top;">:</td><td><div>web2py</div></td></tr><tr><td style="font-weight:bold;vertical-align:top;">mod_wsgi.queue_start</td><td style="vertical-align:top;">:</td><td><div>1382128732822640</div></td></tr><tr><td style="font-weight:bold;vertical-align:top;">mod_wsgi.request_handler</td><td style="vertical-align:top;">:</td><td><div>wsgi-script</div></td></tr><tr><td style="font-weight:bold;vertical-align:top;">mod_wsgi.script_reloading</td><td style="vertical-align:top;">:</td><td><div>1</div></td></tr><tr><td style="font-weight:bold;vertical-align:top;">mod_wsgi.version</td><td style="vertical-align:top;">:</td><td><div><table><tr><td><div>3</div></td></tr><tr><td><div>4</div></td></tr></table></div></td></tr><tr><td style="font-weight:bold;vertical-align:top;">mod_wsgi_application_group</td><td style="vertical-align:top;">:</td><td><div>127.0.1.1|</div></td></tr><tr><td style="font-weight:bold;vertical-align:top;">mod_wsgi_callable_object</td><td style="vertical-align:top;">:</td><td><div>application</div></td></tr><tr><td style="font-weight:bold;vertical-align:top;">mod_wsgi_enable_sendfile</td><td style="vertical-align:top;">:</td><td><div>0</div></td></tr><tr><td style="font-weight:bold;vertical-align:top;">mod_wsgi_handler_script</td><td style="vertical-align:top;">:</td><td><div></div></td></tr><tr><td style="font-weight:bold;vertical-align:top;">mod_wsgi_input_chunked</td><td style="vertical-align:top;">:</td><td><div>0</div></td></tr><tr><td style="font-weight:bold;vertical-align:top;">mod_wsgi_listener_host</td><td style="vertical-align:top;">:</td><td><div></div></td></tr><tr><td style="font-weight:bold;vertical-align:top;">mod_wsgi_listener_port</td><td style="vertical-align:top;">:</td><td><div>443</div></td></tr><tr><td style="font-weight:bold;vertical-align:top;">mod_wsgi_process_group</td><td style="vertical-align:top;">:</td><td><div>web2py</div></td></tr><tr><td style="font-weight:bold;vertical-align:top;">mod_wsgi_queue_start</td><td style="vertical-align:top;">:</td><td><div>1382128732822640</div></td></tr><tr><td style="font-weight:bold;vertical-align:top;">mod_wsgi_request_handler</td><td style="vertical-align:top;">:</td><td><div>wsgi-script</div></td></tr><tr><td style="font-weight:bold;vertical-align:top;">mod_wsgi_script_reloading</td><td style="vertical-align:top;">:</td><td><div>1</div></td></tr><tr><td style="font-weight:bold;vertical-align:top;">mod_wsgi_version</td><td style="vertical-align:top;">:</td><td><div><table><tr><td><div>3</div></td></tr><tr><td><div>4</div></td></tr></table></div></td></tr><tr><td style="font-weight:bold;vertical-align:top;">path_info</td><td style="vertical-align:top;">:</td><td><div>/childcare/appadmin/index</div></td></tr><tr><td style="font-weight:bold;vertical-align:top;">path_translated</td><td style="vertical-align:top;">:</td><td><div>/home/www-data/web2py/wsgihandler.py/childcare/appadmin/index</div></td></tr><tr><td style="font-weight:bold;vertical-align:top;">query_string</td><td style="vertical-align:top;">:</td><td><div></div></td></tr><tr><td style="font-weight:bold;vertical-align:top;">remote_addr</td><td style="vertical-align:top;">:</td><td><div>127.0.0.1</div></td></tr><tr><td style="font-weight:bold;vertical-align:top;">remote_port</td><td style="vertical-align:top;">:</td><td><div>41277</div></td></tr><tr><td style="font-weight:bold;vertical-align:top;">request_method</td><td style="vertical-align:top;">:</td><td><div>GET</div></td></tr><tr><td style="font-weight:bold;vertical-align:top;">request_uri</td><td style="vertical-align:top;">:</td><td><div>/childcare/appadmin/index</div></td></tr><tr><td style="font-weight:bold;vertical-align:top;">script_filename</td><td style="vertical-align:top;">:</td><td><div>/home/www-data/web2py/wsgihandler.py</div></td></tr><tr><td style="font-weight:bold;vertical-align:top;">script_name</td><td style="vertical-align:top;">:</td><td><div></div></td></tr><tr><td style="font-weight:bold;vertical-align:top;">server_addr</td><td style="vertical-align:top;">:</td><td><div>127.0.0.1</div></td></tr><tr><td style="font-weight:bold;vertical-align:top;">server_admin</td><td style="vertical-align:top;">:</td><td><div>[no address given]</div></td></tr><tr><td style="font-weight:bold;vertical-align:top;">server_name</td><td style="vertical-align:top;">:</td><td><div>localhost</div></td></tr><tr><td style="font-weight:bold;vertical-align:top;">server_port</td><td style="vertical-align:top;">:</td><td><div>443</div></td></tr><tr><td style="font-weight:bold;vertical-align:top;">server_protocol</td><td style="vertical-align:top;">:</td><td><div>HTTP/1.1</div></td></tr><tr><td style="font-weight:bold;vertical-align:top;">server_signature</td><td style="vertical-align:top;">:</td><td><div>&lt;address&gt;Apache/2.2.22 (Ubuntu) Server at localhost Port 443&lt;/address&gt;\n</div></td></tr><tr><td style="font-weight:bold;vertical-align:top;">server_software</td><td style="vertical-align:top;">:</td><td><div>Apache/2.2.22 (Ubuntu)</div></td></tr><tr><td style="font-weight:bold;vertical-align:top;">ssl_tls_sni</td><td style="vertical-align:top;">:</td><td><div>localhost</div></td></tr><tr><td style="font-weight:bold;vertical-align:top;">web2py_path</td><td style="vertical-align:top;">:</td><td><div>/home/www-data/web2py</div></td></tr><tr><td style="font-weight:bold;vertical-align:top;">web2py_version</td><td style="vertical-align:top;">:</td><td><div>2.6.4-stable+timestamp.2013.09.22.01.43.37</div></td></tr><tr><td style="font-weight:bold;vertical-align:top;">wsgi.errors</td><td style="vertical-align:top;">:</td><td><div>&lt;mod_wsgi.Log object at 0x7f9fc55f15f0&gt;</div></td></tr><tr><td style="font-weight:bold;vertical-align:top;">wsgi.file_wrapper</td><td style="vertical-align:top;">:</td><td><div>&lt;built-in method file_wrapper of mod_wsgi.Adapter object at 0x7f9fc5604f30&gt;</div></td></tr><tr><td style="font-weight:bold;vertical-align:top;">wsgi.input</td><td style="vertical-align:top;">:</td><td><div>&lt;mod_wsgi.Input object at 0x7f9fc55f10f0&gt;</div></td></tr><tr><td style="font-weight:bold;vertical-align:top;">wsgi.multiprocess</td><td style="vertical-align:top;">:</td><td><div>False</div></td></tr><tr><td style="font-weight:bold;vertical-align:top;">wsgi.multithread</td><td style="vertical-align:top;">:</td><td><div>True</div></td></tr><tr><td style="font-weight:bold;vertical-align:top;">wsgi.run_once</td><td style="vertical-align:top;">:</td><td><div>False</div></td></tr><tr><td style="font-weight:bold;vertical-align:top;">wsgi.url_scheme</td><td style="vertical-align:top;">:</td><td><div>https</div></td></tr><tr><td style="font-weight:bold;vertical-align:top;">wsgi.version</td><td style="vertical-align:top;">:</td><td><div><table><tr><td><div>1</div></td></tr><tr><td><div>0</div></td></tr></table></div></td></tr><tr><td style="font-weight:bold;vertical-align:top;">wsgi_errors</td><td style="vertical-align:top;">:</td><td><div>&lt;mod_wsgi.Log object at 0x7f9fc55f15f0&gt;</div></td></tr><tr><td style="font-weight:bold;vertical-align:top;">wsgi_file_wrapper</td><td style="vertical-align:top;">:</td><td><div>&lt;built-in method file_wrapper of mod_wsgi.Adapter object at 0x7f9fc5604f30&gt;</div></td></tr><tr><td style="font-weight:bold;vertical-align:top;">wsgi_input</td><td style="vertical-align:top;">:</td><td><div>&lt;mod_wsgi.Input object at 0x7f9fc55f10f0&gt;</div></td></tr><tr><td style="font-weight:bold;vertical-align:top;">wsgi_multiprocess</td><td style="vertical-align:top;">:</td><td><div>False</div></td></tr><tr><td style="font-weight:bold;vertical-align:top;">wsgi_multithread</td><td style="vertical-align:top;">:</td><td><div>True</div></td></tr><tr><td style="font-weight:bold;vertical-align:top;">wsgi_run_once</td><td style="vertical-align:top;">:</td><td><div>False</div></td></tr><tr><td style="font-weight:bold;vertical-align:top;">wsgi_url_scheme</td><td style="vertical-align:top;">:</td><td><div>https</div></td></tr><tr><td style="font-weight:bold;vertical-align:top;">wsgi_version</td><td style="vertical-align:top;">:</td><td><div><table><tr><td><div>1</div></td></tr><tr><td><div>0</div></td></tr></table></div></td></tr></table></div></td></tr><tr><td style="font-weight:bold;vertical-align:top;">extension</td><td style="vertical-align:top;">:</td><td><div>html</div></td></tr><tr><td style="font-weight:bold;vertical-align:top;">folder</td><td style="vertical-align:top;">:</td><td><div>/home/www-data/web2py/applications/childcare/</div></td></tr><tr><td style="font-weight:bold;vertical-align:top;">function</td><td style="vertical-align:top;">:</td><td><div>index</div></td></tr><tr><td style="font-weight:bold;vertical-align:top;">global_settings</td><td style="vertical-align:top;">:</td><td><div><table><tr><td style="font-weight:bold;vertical-align:top;">app_folders</td><td style="vertical-align:top;">:</td><td><div>set([&#x27;/home/www-data/web2py/applications/childcare/&#x27;, &#x27;/home/www-data/web2py/applications/admin/&#x27;])</div></td></tr><tr><td style="font-weight:bold;vertical-align:top;">applications_parent</td><td style="vertical-align:top;">:</td><td><div>/home/www-data/web2py</div></td></tr><tr><td style="font-weight:bold;vertical-align:top;">db_sessions</td><td style="vertical-align:top;">:</td><td><div>set([])</div></td></tr><tr><td style="font-weight:bold;vertical-align:top;">debugging</td><td style="vertical-align:top;">:</td><td><div>False</div></td></tr><tr><td style="font-weight:bold;vertical-align:top;">gluon_parent</td><td style="vertical-align:top;">:</td><td><div>/home/www-data/web2py</div></td></tr><tr><td style="font-weight:bold;vertical-align:top;">is_jython</td><td style="vertical-align:top;">:</td><td><div>False</div></td></tr><tr><td style="font-weight:bold;vertical-align:top;">is_pypy</td><td style="vertical-align:top;">:</td><td><div>False</div></td></tr><tr><td style="font-weight:bold;vertical-align:top;">is_source</td><td style="vertical-align:top;">:</td><td><div>True</div></td></tr><tr><td style="font-weight:bold;vertical-align:top;">local_hosts</td><td style="vertical-align:top;">:</td><td><div><table><tr><td><div>mystic</div></td></tr><tr><td><div>::ffff:127.0.0.1</div></td></tr><tr><td><div>::1</div></td></tr><tr><td><div>localhost</div></td></tr><tr><td><div>127.0.1.1</div></td></tr><tr><td><div>127.0.0.1</div></td></tr></table></div></td></tr><tr><td style="font-weight:bold;vertical-align:top;">web2py_version</td><td style="vertical-align:top;">:</td><td><div>2.6.4-stable+timestamp.2013.09.22.01.43.37</div></td></tr></table></div></td></tr><tr><td style="font-weight:bold;vertical-align:top;">is_https</td><td style="vertical-align:top;">:</td><td><div>True</div></td></tr><tr><td style="font-weight:bold;vertical-align:top;">is_local</td><td style="vertical-align:top;">:</td><td><div>True</div></td></tr><tr><td style="font-weight:bold;vertical-align:top;">is_restful</td><td style="vertical-align:top;">:</td><td><div>False</div></td></tr><tr><td style="font-weight:bold;vertical-align:top;">now</td><td style="vertical-align:top;">:</td><td><div>datetime.datetime(2013, 10, 18, 17, 38, 52, 822990)</div></td></tr><tr><td style="font-weight:bold;vertical-align:top;">raw_args</td><td style="vertical-align:top;">:</td><td><div></div></td></tr><tr><td style="font-weight:bold;vertical-align:top;">raw_extension</td><td style="vertical-align:top;">:</td><td><div>None</div></td></tr><tr><td style="font-weight:bold;vertical-align:top;">url</td><td style="vertical-align:top;">:</td><td><div>/childcare/appadmin/index</div></td></tr><tr><td style="font-weight:bold;vertical-align:top;">utcnow</td><td style="vertical-align:top;">:</td><td><div>datetime.datetime(2013, 10, 18, 20, 38, 52, 823003)</div></td></tr><tr><td style="font-weight:bold;vertical-align:top;">uuid</td><td style="vertical-align:top;">:</td><td><div>childcare/127.0.0.1.2013-10-18.17-38-52.babc56ff-c6b4-460b-ad3b-7ebe2f89c939</div></td></tr><tr><td style="font-weight:bold;vertical-align:top;">wsgi</td><td style="vertical-align:top;">:</td><td><div>&lt;gluon.main.LazyWSGI object at 0x7f9fc55fed10&gt;</div></td></tr></table></div>'
tRp62
sS'frames'
p63
(lp64
(dp65
S'file'
p66
S'/home/www-data/web2py/gluon/restricted.py'
p67
sS'dump'
p68
(dp69
S'environment'
p70
S"{'A': <class 'gluon.html.A'>, 'ANY_OF': <class 'gluon.validators.ANY_OF'>, 'Auth': <class 'gluon.tools.Auth'>, 'B': <class 'gluon.html.B'>, 'BEAUTIFY': <class 'gluon.html.BEAUTIFY'>, 'BODY': <class 'gluon.html.BODY'>, 'BR': <class 'gluon.html.BR'>, 'BUTTON': <class 'gluon.html.BUTTON'>, 'CAT': <class 'gluon.html.CAT'>, 'CENTER': <class 'gluon.html.CENTER'>, ...}"
p71
sS'ccode'
p72
S'<code object <module> at 0x7f9fc5602cb0, file "/...2py/applications/childcare/models/db.py", line 1>'
p73
ssS'lnum'
p74
I217
sS'lines'
p75
(dp76
I212
S'    try:'
p77
sI213
S'        if isinstance(code, types.CodeType):'
p78
sI214
S'            ccode = code'
p79
sI215
S'        else:'
p80
sI216
S'            ccode = compile2(code, layer)'
p81
sI217
S'        exec ccode in environment'
p82
sI218
S'    except HTTP:'
p83
sI219
S'        raise'
p84
sI220
S'    except RestrictedError:'
p85
sI221
S'        # do not encapsulate (obfuscate) the original RestrictedError'
p86
ssS'call'
p87
S'(code="from gluon.tools import *\\nfrom gluon.dal import ...IN_DB(db, db.phone_number_types.id, \'%(name)s\')\\n\\n", environment={\'A\': <class \'gluon.html.A\'>, \'ANY_OF\': <class \'gluon.validators.ANY_OF\'>, \'Auth\': <class \'gluon.tools.Auth\'>, \'B\': <class \'gluon.html.B\'>, \'BEAUTIFY\': <class \'gluon.html.BEAUTIFY\'>, \'BODY\': <class \'gluon.html.BODY\'>, \'BR\': <class \'gluon.html.BR\'>, \'BUTTON\': <class \'gluon.html.BUTTON\'>, \'CAT\': <class \'gluon.html.CAT\'>, \'CENTER\': <class \'gluon.html.CENTER\'>, ...}, layer=\'/home/www-data/web2py/applications/childcare/models/db.py\')'
p88
sS'func'
p89
S'restricted'
p90
sa(dp91
g66
S'/home/www-data/web2py/applications/childcare/models/db.py'
p92
sg68
(dp93
S'Field'
p94
S"<class 'gluon.dal.Field'>"
p95
ssg74
I66
sg75
(dp96
I64
S"db.define_table('geolocation',"
p97
sI65
S"    Field('agency_id', 'references agencies'),"
p98
sI66
S"    Field('location', 'geometry()')"
p99
sI67
S'    )'
p100
sI68
S''
sI69
S''
sI70
S"db.agencies.facility_type_id.requires = IS_IN_DB(db, db.facility_types.id, '%(name)s')"
p101
sI61
S"    Field('file', 'upload'),"
p102
sI62
S"    format = '%(filename)s')"
p103
sI63
S''
ssg87
S'()'
p104
sg89
S'<module>'
p105
sa(dp106
g66
S'/home/www-data/web2py/gluon/dal.py'
p107
sg68
(dp108
S'fields'
p109
S'(<gluon.dal.Field object>, <gluon.dal.Field object>)'
p110
sS'self'
p111
S'<DAL uri="postgres:******@localhost/childcare">'
p112
sS'args'
p113
g21
sS'tablename'
p114
S"'geolocation'"
p115
sS'table'
p116
S'undefined'
p117
sS'self.lazy_define_table'
p118
S'<bound method DAL.lazy_define_table of <DAL uri="postgres:******@localhost/childcare">>'
p119
ssg74
I7895
sg75
(dp120
I7890
S'                    % (tablename,invalid_args))'
p121
sI7891
S'        if self._lazy_tables and not tablename in self._LAZY_TABLES:'
p122
sI7892
S'            self._LAZY_TABLES[tablename] = (tablename,fields,args)'
p123
sI7893
S'            table = None'
p124
sI7894
S'        else:'
p125
sI7895
S'            table = self.lazy_define_table(tablename,*fields,**args)'
p126
sI7896
S'        if not tablename in self.tables:'
p127
sI7897
S'            self.tables.append(tablename)'
p128
sI7898
S'        return table'
p129
sI7899
S''
ssg87
S'(self=<DAL uri="postgres:******@localhost/childcare">, tablename=\'geolocation\', *fields=(<gluon.dal.Field object>, <gluon.dal.Field object>), **args={})'
p130
sg89
S'define_table'
p131
sa(dp132
g66
S'/home/www-data/web2py/gluon/dal.py'
p133
sg68
(dp134
S'polymodel'
p135
S'None'
p136
ssg74
I7932
sg75
(dp137
I7936
S'            table._dbt = None'
p138
sI7927
S'            try:'
p139
sI7928
S'                GLOBAL_LOCKER.acquire()'
p140
sI7929
S'                self._lastsql = self._adapter.create_table('
p141
sI7930
S'                    table,migrate=migrate,'
p142
sI7931
S'                    fake_migrate=fake_migrate,'
p143
sI7932
S'                    polymodel=polymodel)'
p144
sI7933
S'            finally:'
p145
sI7934
S'                GLOBAL_LOCKER.release()'
p146
sI7935
S'        else:'
p147
ssg87
S'(self=<DAL uri="postgres:******@localhost/childcare">, tablename=\'geolocation\', *fields=(<gluon.dal.Field object>, <gluon.dal.Field object>), **args={})'
p148
sg89
S'lazy_define_table'
p149
sa(dp150
g66
S'/home/www-data/web2py/gluon/dal.py'
p151
sg68
(dp152
S'query'
p153
S"'CREATE TABLE geolocation(\\n    id SERIAL PRIMARY ...GER REFERENCES agencies (id) ON DELETE CASCADE\\n);'"
p154
sS'self'
p155
S'<gluon.dal.PostgreSQLAdapter object>'
p156
sS'table'
p157
S'<Table geolocation (id,agency_id,location)>'
p158
sS'self.create_sequence_and_triggers'
p159
S'<bound method PostgreSQLAdapter.create_sequence_...triggers of <gluon.dal.PostgreSQLAdapter object>>'
p160
ssg74
I1002
sg75
(dp161
I997
S'            if table._dbt:'
p162
sI998
S"                self.log('timestamp: %s\\n%s\\n'"
p163
sI999
S'                         % (datetime.datetime.today().isoformat(),'
p164
sI1000
S'                            query), table)'
p165
sI1001
S'            if not fake_migrate:'
p166
sI1002
S'                self.create_sequence_and_triggers(query,table)'
p167
sI1003
S'                table._db.commit()'
p168
sI1004
S'                # Postgres geom fields are added now,'
p169
sI1005
S'                # after the table has been created'
p170
sI1006
S'                for query in postcreation_fields:'
p171
ssg87
S'(self=<gluon.dal.PostgreSQLAdapter object>, table=<Table geolocation (id,agency_id,location)>, migrate=True, fake_migrate=False, polymodel=None)'
p172
sg89
S'create_table'
p173
sa(dp174
g66
S'/home/www-data/web2py/gluon/dal.py'
p175
sg68
(dp176
S'query'
p177
S"'CREATE TABLE geolocation(\\n    id SERIAL PRIMARY ...GER REFERENCES agencies (id) ON DELETE CASCADE\\n);'"
p178
sS'self'
p179
S'<gluon.dal.PostgreSQLAdapter object>'
p180
sS'self.execute'
p181
S'<bound method PostgreSQLAdapter.execute of <gluon.dal.PostgreSQLAdapter object>>'
p182
ssg74
I2657
sg75
(dp183
I2656
S'        #              % (table._tablename, table._fieldname, table._sequence_name))'
p184
sI2657
S'        self.execute(query)'
p185
sI2658
S''
sI2659
S"    REGEX_URI = re.compile('^(?P<user>[^:@]+)(\\:(?P<password>[^@]*))?@(?P<host>[^\\:@]+)(\\:(?P<port>[0-9]+))?/(?P<db>[^\\?]+)(\\?sslmode=(?P<sslmode>.+))?$')"
p186
sI2660
S''
sI2661
S"    def __init__(self,db,uri,pool_size=0,folder=None,db_codec ='UTF-8',"
p187
sI2652
S'    def create_sequence_and_triggers(self, query, table, **args):'
p188
sI2653
S'        # following lines should only be executed if table._sequence_name does not exist'
p189
sI2654
S"        # self.execute('CREATE SEQUENCE %s;' % table._sequence_name)"
p190
sI2655
S'        # self.execute("ALTER TABLE %s ALTER COLUMN %s SET DEFAULT NEXTVAL(\'%s\');" \\'
p191
ssg87
S"(self=<gluon.dal.PostgreSQLAdapter object>, query='CREATE TABLE geolocation(\\n    id SERIAL PRIMARY ...GER REFERENCES agencies (id) ON DELETE CASCADE\\n);', table=<Table geolocation (id,agency_id,location)>, **args={})"
p192
sg89
S'create_sequence_and_triggers'
p193
sa(dp194
g66
S'/home/www-data/web2py/gluon/dal.py'
p195
sg68
(dp196
S'a'
S"('CREATE TABLE geolocation(\\n    id SERIAL PRIMARY ...GER REFERENCES agencies (id) ON DELETE CASCADE\\n);',)"
p197
sS'self'
p198
S'<gluon.dal.PostgreSQLAdapter object>'
p199
sS'b'
g21
sS'self.log_execute'
p200
S'<bound method PostgreSQLAdapter.log_execute of <gluon.dal.PostgreSQLAdapter object>>'
p201
ssg74
I1833
sg75
(dp202
I1828
S'        self.db._timings.append((command,time.time()-t0))'
p203
sI1829
S'        del self.db._timings[:-TIMINGSSIZE]'
p204
sI1830
S'        return ret'
p205
sI1831
S''
sI1832
S'    def execute(self, *a, **b):'
p206
sI1833
S'        return self.log_execute(*a, **b)'
p207
sI1834
S''
sI1835
S'    def represent(self, obj, fieldtype):'
p208
sI1836
S'        field_is_type = fieldtype.startswith'
p209
sI1837
S'        if isinstance(obj, CALLABLETYPES):'
p210
ssg87
S"(self=<gluon.dal.PostgreSQLAdapter object>, *a=('CREATE TABLE geolocation(\\n    id SERIAL PRIMARY ...GER REFERENCES agencies (id) ON DELETE CASCADE\\n);',), **b={})"
p211
sg89
S'execute'
p212
sa(dp213
g66
S'/home/www-data/web2py/gluon/dal.py'
p214
sg68
(dp215
S'a'
S"('CREATE TABLE geolocation(\\n    id SERIAL PRIMARY ...GER REFERENCES agencies (id) ON DELETE CASCADE\\n);',)"
p216
sS'b'
g21
sS'self'
p217
S'<gluon.dal.PostgreSQLAdapter object>'
p218
sS'ret'
p219
g117
sS'self.cursor'
p220
S'<gluon.contrib.pg8000.dbapi.CursorWrapper object>'
p221
sS'command'
p222
S"'CREATE TABLE geolocation(\\n    id SERIAL PRIMARY ...GER REFERENCES agencies (id) ON DELETE CASCADE\\n);'"
p223
sS'self.cursor.execute'
p224
S'<bound method CursorWrapper._fn of <gluon.contrib.pg8000.dbapi.CursorWrapper object>>'
p225
ssg74
I1827
sg75
(dp226
I1824
S"            LOGGER.debug('SQL: %s' % command)"
p227
sI1825
S'        self.db._lastsql = command'
p228
sI1826
S'        t0 = time.time()'
p229
sI1827
S'        ret = self.cursor.execute(command, *a[1:], **b)'
p230
sI1828
S'        self.db._timings.append((command,time.time()-t0))'
p231
sI1829
S'        del self.db._timings[:-TIMINGSSIZE]'
p232
sI1830
S'        return ret'
p233
sI1831
S''
sI1822
S'            command = self.filter_sql_command(command)'
p234
sI1823
S'        if self.db._debug:'
p235
ssg87
S"(self=<gluon.dal.PostgreSQLAdapter object>, *a=('CREATE TABLE geolocation(\\n    id SERIAL PRIMARY ...GER REFERENCES agencies (id) ON DELETE CASCADE\\n);',), **b={})"
p236
sg89
S'log_execute'
p237
sa(dp238
g66
S'/home/www-data/web2py/gluon/contrib/pg8000/dbapi.py'
p239
sg68
(dp240
S'self'
p241
S'<gluon.contrib.pg8000.dbapi.CursorWrapper object>'
p242
sS'args'
p243
S"('CREATE TABLE geolocation(\\n    id SERIAL PRIMARY ...GER REFERENCES agencies (id) ON DELETE CASCADE\\n);',)"
p244
sS'fn'
p245
S'<function execute>'
p246
sS'kwargs'
p247
g21
ssg74
I246
sg75
(dp248
I241
S''
sI242
S'def require_open_cursor(fn):'
p249
sI243
S'    def _fn(self, *args, **kwargs):'
p250
sI244
S'        if self.cursor == None:'
p251
sI245
S'            raise CursorClosedError()'
p252
sI246
S'        return fn(self, *args, **kwargs)'
p253
sI247
S'    return _fn'
p254
sI248
S''
sI249
S'##'
p255
sI250
S'# The class of object returned by the {@link #ConnectionWrapper.cursor cursor method}.'
p256
ssg87
S"(self=<gluon.contrib.pg8000.dbapi.CursorWrapper object>, *args=('CREATE TABLE geolocation(\\n    id SERIAL PRIMARY ...GER REFERENCES agencies (id) ON DELETE CASCADE\\n);',), **kwargs={})"
p257
sg89
S'_fn'
p258
sa(dp259
g66
S'/home/www-data/web2py/gluon/contrib/pg8000/dbapi.py'
p260
sg68
(dp261
S'self._execute'
p262
S'<bound method CursorWrapper._execute of <gluon.contrib.pg8000.dbapi.CursorWrapper object>>'
p263
sS'self'
p264
S'<gluon.contrib.pg8000.dbapi.CursorWrapper object>'
p265
sS'args'
p266
S'()'
p267
sS'operation'
p268
S"'CREATE TABLE geolocation(\\n    id SERIAL PRIMARY ...GER REFERENCES agencies (id) ON DELETE CASCADE\\n);'"
p269
ssg74
I317
sg75
(dp270
I320
S'        new_query, new_args = convert_paramstyle(paramstyle, operation, args)'
p271
sI321
S'        try:'
p272
sI312
S'    @require_open_cursor'
p273
sI313
S'    def execute(self, operation, args=()):'
p274
sI314
S'        if not self._connection.in_transaction:'
p275
sI315
S'            self._connection.begin()'
p276
sI316
S'        self._override_rowcount = None'
p277
sI317
S'        self._execute(operation, args)'
p278
sI318
S''
sI319
S'    def _execute(self, operation, args=()):'
p279
ssg87
S"(self=<gluon.contrib.pg8000.dbapi.CursorWrapper object>, operation='CREATE TABLE geolocation(\\n    id SERIAL PRIMARY ...GER REFERENCES agencies (id) ON DELETE CASCADE\\n);', args=())"
p280
sg89
g212
sa(dp281
g66
S'/home/www-data/web2py/gluon/contrib/pg8000/dbapi.py'
p282
sg68
(dp283
S'new_args'
p284
S'()'
p285
sS'self.cursor'
p286
S'<gluon.contrib.pg8000.interface.Cursor object>'
p287
sS'self'
p288
S'<gluon.contrib.pg8000.dbapi.CursorWrapper object>'
p289
sS'new_query'
p290
S"'CREATE TABLE geolocation(\\n    id SERIAL PRIMARY ...GER REFERENCES agencies (id) ON DELETE CASCADE\\n);'"
p291
sS'self.cursor.execute'
p292
S'<bound method Cursor.execute of <gluon.contrib.pg8000.interface.Cursor object>>'
p293
ssg74
I322
sg75
(dp294
I320
S'        new_query, new_args = convert_paramstyle(paramstyle, operation, args)'
p295
sI321
S'        try:'
p296
sI322
S'            self.cursor.execute(new_query, *new_args)'
p297
sI323
S'        except ConnectionClosedError:'
p298
sI324
S"            # can't rollback in this case"
p299
sI325
S'            raise'
p300
sI326
S'        except:'
p301
sI317
S'        self._execute(operation, args)'
p302
sI318
S''
sI319
S'    def _execute(self, operation, args=()):'
p303
ssg87
S"(self=<gluon.contrib.pg8000.dbapi.CursorWrapper object>, operation='CREATE TABLE geolocation(\\n    id SERIAL PRIMARY ...GER REFERENCES agencies (id) ON DELETE CASCADE\\n);', args=())"
p304
sg89
S'_execute'
p305
sa(dp306
g66
S'/home/www-data/web2py/gluon/contrib/pg8000/interface.py'
p307
sg68
(dp308
S'self._stmt.execute'
p309
S'<bound method PreparedStatement.execute of <gluo...ntrib.pg8000.interface.PreparedStatement object>>'
p310
sS'kwargs'
p311
g21
sS'self'
p312
S'<gluon.contrib.pg8000.interface.Cursor object>'
p313
sS'args'
p314
S'()'
p315
sS'self._stmt'
p316
S'<gluon.contrib.pg8000.interface.PreparedStatement object>'
p317
ssg74
I399
sg75
(dp318
I394
S'                ## print "SimpleQuery:", query'
p319
sI395
S'                self._stmt = SimpleStatement(self.connection, query)'
p320
sI396
S'            else:'
p321
sI397
S'                # use PostgreSQL Extended Query Protocol'
p322
sI398
S'                self._stmt = PreparedStatement(self.connection, query, statement_name="", *[{"type": type(x), "value": x} for x in args])'
p323
sI399
S'            self._stmt.execute(*args, **kwargs)'
p324
sI400
S'        finally:'
p325
sI401
S'            self.connection._unnamed_prepared_statement_lock.release()'
p326
sI402
S''
sI403
S'    ##'
p327
ssg87
S"(self=<gluon.contrib.pg8000.interface.Cursor object>, query='CREATE TABLE geolocation(\\n    id SERIAL PRIMARY ...GER REFERENCES agencies (id) ON DELETE CASCADE\\n);', *args=(), **kwargs={})"
p328
sg89
g212
sa(dp329
g66
S'/home/www-data/web2py/gluon/contrib/pg8000/interface.py'
p330
sg68
(dp331
S'kwargs.get'
p332
S'<built-in method get of dict object>'
p333
sS'args'
p334
S'()'
p335
sS'self.c'
p336
S'<gluon.contrib.pg8000.protocol.Connection object>'
p337
sS'self'
p338
S'<gluon.contrib.pg8000.interface.PreparedStatement object>'
p339
sS'cmd'
p340
g117
sS'self._row_desc'
p341
S'None'
p342
sS'self.c.bind'
p343
S'<bound method Connection._fn of <gluon.contrib.pg8000.protocol.Connection object>>'
p344
sS'self._statement_name'
p345
S"''"
p346
sS'self._parse_row_desc'
p347
S'(None, [])'
p348
sS'kwargs'
p349
g21
sS'self._portal_name'
p350
S"'pg8000_portal_14'"
p351
ssg74
I169
sg75
(dp352
I164
S'                self._ongoing_row_count = 0'
p353
sI165
S'            if self._portal_name != None:'
p354
sI166
S'                self.c.close_portal(self._portal_name)'
p355
sI167
S'            self._command_complete = False'
p356
sI168
S'            self._portal_name = "pg8000_portal_%s" % self._statement_number'
p357
sI169
S'            self._row_desc, cmd = self.c.bind(self._portal_name, self._statement_name, args, self._parse_row_desc, kwargs.get("stream"))'
p358
sI170
S'            if self._row_desc:'
p359
sI171
S'                # We execute our cursor right away to fill up our cache.  This'
p360
sI172
S'                # prevents the cursor from being destroyed, apparently, by a rogue'
p361
sI173
S'                # Sync between Bind and Execute.  Since it is quite likely that'
p362
ssg87
S'(self=<gluon.contrib.pg8000.interface.PreparedStatement object>, *args=(), **kwargs={})'
p363
sg89
g212
sa(dp364
g66
S'/home/www-data/web2py/gluon/contrib/pg8000/protocol.py'
p365
sg68
(dp366
S'self'
p367
S'<gluon.contrib.pg8000.protocol.Connection object>'
p368
sS'args'
p369
S"('pg8000_portal_14', '', (), (None, []), None)"
p370
sS'fn'
p371
S'<function bind>'
p372
sS'kwargs'
p373
g21
ssg74
I943
sg75
(dp374
I938
S''
sI939
S'def sync_on_error(fn):'
p375
sI940
S'    def _fn(self, *args, **kwargs):'
p376
sI941
S'        try:'
p377
sI942
S'            self._sock_lock.acquire()'
p378
sI943
S'            return fn(self, *args, **kwargs)'
p379
sI944
S'        except:'
p380
sI945
S'            self._sync()'
p381
sI946
S'            raise'
p382
sI947
S'        finally:'
p383
ssg87
S"(self=<gluon.contrib.pg8000.protocol.Connection object>, *args=('pg8000_portal_14', '', (), (None, []), None), **kwargs={})"
p384
sg89
g258
sa(dp385
g66
S'/home/www-data/web2py/gluon/contrib/pg8000/protocol.py'
p386
sg68
(dp387
S'reader.handle_messages'
p388
S'<bound method MessageReader.handle_messages of <gluon.contrib.pg8000.protocol.MessageReader object>>'
p389
sS'reader'
p390
S'<gluon.contrib.pg8000.protocol.MessageReader object>'
p391
ssg74
I1142
sg75
(dp392
I1137
S''
sI1138
S'        # Return the new row desc, since it will have the format types we'
p393
sI1139
S'        # asked the server for'
p394
sI1140
S'        reader.add_message(RowDescription, lambda msg: (msg, None))'
p395
sI1141
S''
sI1142
S'        return reader.handle_messages()'
p396
sI1143
S''
sI1144
S'    def _copy_in_response(self, copyin, fileobj, old_reader):'
p397
sI1145
S'        if fileobj == None:'
p398
sI1146
S'            raise CopyQueryWithoutStreamError()'
p399
ssg87
S"(self=<gluon.contrib.pg8000.protocol.Connection object>, portal='pg8000_portal_14', statement='', params=(), parse_data=(None, []), copy_stream=None)"
p400
sg89
S'bind'
p401
sa(dp402
g66
S'/home/www-data/web2py/gluon/contrib/pg8000/protocol.py'
p403
sg68
(dp404
S'msg'
p405
S'<gluon.contrib.pg8000.protocol.NoData object>'
p406
sS'handler'
p407
S'<bound method Connection._bind_nodata of <gluon.contrib.pg8000.protocol.Connection object>>'
p408
sS'retval'
p409
S'0'
sS'args'
p410
S"('pg8000_portal_14', <gluon.contrib.pg8000.protocol.MessageReader object>, None)"
p411
sS'kwargs'
p412
g21
ssg74
I911
sg75
(dp413
I906
S'            msg = self._conn._read_message()'
p414
sI907
S'            msg_handled = False'
p415
sI908
S'            for (msg_class, handler, args, kwargs) in self._msgs:'
p416
sI909
S'                if isinstance(msg, msg_class):'
p417
sI910
S'                    msg_handled = True'
p418
sI911
S'                    retval = handler(msg, *args, **kwargs)'
p419
sI912
S'                    if retval:'
p420
sI913
S'                        # The handler returned a true value, meaning that the'
p421
sI914
S'                        # message loop should be aborted.'
p422
sI915
S'                        if exc != None:'
p423
ssg87
S'(self=<gluon.contrib.pg8000.protocol.MessageReader object>)'
p424
sg89
S'handle_messages'
p425
sa(dp426
g66
S'/home/www-data/web2py/gluon/contrib/pg8000/protocol.py'
p427
sg68
(dp428
S'reader.handle_messages'
p429
S'<bound method MessageReader.handle_messages of <gluon.contrib.pg8000.protocol.MessageReader object>>'
p430
sS'reader'
p431
S'<gluon.contrib.pg8000.protocol.MessageReader object>'
p432
ssg74
I1181
sg75
(dp433
I1184
S''
sI1185
S'    @sync_on_error'
p434
sI1176
S'        reader.add_message(CopyOutResponse, self._copy_out_response, copy_stream, reader)'
p435
sI1177
S'        reader.add_message(CopyInResponse, self._copy_in_response, copy_stream, reader)'
p436
sI1178
S"        reader.add_message(CommandComplete, lambda msg, out: out.setdefault('msg', msg) and False, output)"
p437
sI1179
S'        reader.add_message(ReadyForQuery, lambda msg: 1)'
p438
sI1180
S'        reader.delay_raising_exception = True'
p439
sI1181
S'        reader.handle_messages()'
p440
sI1182
S''
sI1183
S"        old_reader.return_value((None, output['msg']))"
p441
ssg87
S"(self=<gluon.contrib.pg8000.protocol.Connection object>, msg=<gluon.contrib.pg8000.protocol.NoData object>, portal='pg8000_portal_14', old_reader=<gluon.contrib.pg8000.protocol.MessageReader object>, copy_stream=None)"
p442
sg89
S'_bind_nodata'
p443
sa(dp444
g66
S'/home/www-data/web2py/gluon/contrib/pg8000/protocol.py'
p445
sg68
(dp446
S'exc'
p447
S'ProgrammingError(\'ERROR\', \'42P07\', \'relation "geolocation" already exists\')'
p448
ssg74
I916
sg75
(dp449
I911
S'                    retval = handler(msg, *args, **kwargs)'
p450
sI912
S'                    if retval:'
p451
sI913
S'                        # The handler returned a true value, meaning that the'
p452
sI914
S'                        # message loop should be aborted.'
p453
sI915
S'                        if exc != None:'
p454
sI916
S'                            raise exc'
p455
sI917
S'                        return retval'
p456
sI918
S'                    elif hasattr(self, "_retval"):'
p457
sI919
S'                        # The handler told us to return -- used for non-true'
p458
sI920
S'                        # return values'
p459
ssg87
S'(self=<gluon.contrib.pg8000.protocol.MessageReader object>)'
p460
sg89
g425
sasS'pyver'
p461
S'Python 2.7.3: /usr/bin/python (prefix: /usr)'
p462
sS'session'
p463
g61
(S's\xc7\x01\x00\x00<div><table><tr><td style="font-weight:bold;vertical-align:top;">flash</td><td style="vertical-align:top;">:</td><td><div>None</div></td></tr><tr><td style="font-weight:bold;vertical-align:top;">last_orderby</td><td style="vertical-align:top;">:</td><td><div>None</div></td></tr><tr><td style="font-weight:bold;vertical-align:top;">last_query</td><td style="vertical-align:top;">:</td><td><div>db.agency_program_types.id&gt;0</div></td></tr></table></div>'
tRp464
sS'etype'
p465
S"<class 'gluon.contrib.pg8000.errors.ProgrammingError'>"
p466
sS'date'
p467
S'Fri Oct 18 17:38:52 2013'
p468
sS'response'
p469
g61
(S's\xc0\x16\x00\x00<div><table><tr><td style="font-weight:bold;vertical-align:top;">body</td><td style="vertical-align:top;">:</td><td><div>&lt;cStringIO.StringO object at 0x7f9fc5c51ed8&gt;</div></td></tr><tr><td style="font-weight:bold;vertical-align:top;">cookies</td><td style="vertical-align:top;">:</td><td><div><table><tr><td style="font-weight:bold;vertical-align:top;">session_id_childcare</td><td style="vertical-align:top;">:</td><td><div>127.0.0.1-da67e77a-1d59-4435-ba01-70dff3bf30f1<table><tr><td style="font-weight:bold;vertical-align:top;">comment</td><td style="vertical-align:top;">:</td><td><div></div></td></tr><tr><td style="font-weight:bold;vertical-align:top;">domain</td><td style="vertical-align:top;">:</td><td><div></div></td></tr><tr><td style="font-weight:bold;vertical-align:top;">expires</td><td style="vertical-align:top;">:</td><td><div></div></td></tr><tr><td style="font-weight:bold;vertical-align:top;">httponly</td><td style="vertical-align:top;">:</td><td><div></div></td></tr><tr><td style="font-weight:bold;vertical-align:top;">max-age</td><td style="vertical-align:top;">:</td><td><div></div></td></tr><tr><td style="font-weight:bold;vertical-align:top;">path</td><td style="vertical-align:top;">:</td><td><div>/</div></td></tr><tr><td style="font-weight:bold;vertical-align:top;">secure</td><td style="vertical-align:top;">:</td><td><div></div></td></tr><tr><td style="font-weight:bold;vertical-align:top;">version</td><td style="vertical-align:top;">:</td><td><div></div></td></tr></table></div></td></tr></table></div></td></tr><tr><td style="font-weight:bold;vertical-align:top;">delimiters</td><td style="vertical-align:top;">:</td><td><div><table><tr><td><div>{{</div></td></tr><tr><td><div>}}</div></td></tr></table></div></td></tr><tr><td style="font-weight:bold;vertical-align:top;">files</td><td style="vertical-align:top;">:</td><td><div><table></table></div></td></tr><tr><td style="font-weight:bold;vertical-align:top;">flash</td><td style="vertical-align:top;">:</td><td><div></div></td></tr><tr><td style="font-weight:bold;vertical-align:top;">generic_patterns</td><td style="vertical-align:top;">:</td><td><div><table></table></div></td></tr><tr><td style="font-weight:bold;vertical-align:top;">headers</td><td style="vertical-align:top;">:</td><td><div><table><tr><td style="font-weight:bold;vertical-align:top;">X-Powered-By</td><td style="vertical-align:top;">:</td><td><div>web2py</div></td></tr></table></div></td></tr><tr><td style="font-weight:bold;vertical-align:top;">menu</td><td style="vertical-align:top;">:</td><td><div><table></table></div></td></tr><tr><td style="font-weight:bold;vertical-align:top;">meta</td><td style="vertical-align:top;">:</td><td><div><table></table></div></td></tr><tr><td style="font-weight:bold;vertical-align:top;">models_to_run</td><td style="vertical-align:top;">:</td><td><div><table><tr><td><div>^\\w+\\.py$</div></td></tr><tr><td><div>^appadmin/\\w+\\.py$</div></td></tr><tr><td><div>^appadmin/index/\\w+\\.py$</div></td></tr></table></div></td></tr><tr><td style="font-weight:bold;vertical-align:top;">postprocessing</td><td style="vertical-align:top;">:</td><td><div><table></table></div></td></tr><tr><td style="font-weight:bold;vertical-align:top;">session_client</td><td style="vertical-align:top;">:</td><td><div>127.0.0.1</div></td></tr><tr><td style="font-weight:bold;vertical-align:top;">session_cookie_compression_level</td><td style="vertical-align:top;">:</td><td><div>None</div></td></tr><tr><td style="font-weight:bold;vertical-align:top;">session_cookie_expires</td><td style="vertical-align:top;">:</td><td><div>None</div></td></tr><tr><td style="font-weight:bold;vertical-align:top;">session_cookie_key</td><td style="vertical-align:top;">:</td><td><div>None</div></td></tr><tr><td style="font-weight:bold;vertical-align:top;">session_data_name</td><td style="vertical-align:top;">:</td><td><div>session_data_childcare</div></td></tr><tr><td style="font-weight:bold;vertical-align:top;">session_file</td><td style="vertical-align:top;">:</td><td><div>&lt;open file &#x27;/home/www-data/web2py/applications/childcare/sessions/127.0.0.1-da67e77a-1d59-4435-ba01-70dff3bf30f1&#x27;, mode &#x27;rb+&#x27; at 0x7f9fc5c52390&gt;</div></td></tr><tr><td style="font-weight:bold;vertical-align:top;">session_filename</td><td style="vertical-align:top;">:</td><td><div>/home/www-data/web2py/applications/childcare/sessions/127.0.0.1-da67e77a-1d59-4435-ba01-70dff3bf30f1</div></td></tr><tr><td style="font-weight:bold;vertical-align:top;">session_hash</td><td style="vertical-align:top;">:</td><td><div>04db05a8d13b8e8a6e5814b24c960925</div></td></tr><tr><td style="font-weight:bold;vertical-align:top;">session_id</td><td style="vertical-align:top;">:</td><td><div>127.0.0.1-da67e77a-1d59-4435-ba01-70dff3bf30f1</div></td></tr><tr><td style="font-weight:bold;vertical-align:top;">session_id_name</td><td style="vertical-align:top;">:</td><td><div>session_id_childcare</div></td></tr><tr><td style="font-weight:bold;vertical-align:top;">session_locked</td><td style="vertical-align:top;">:</td><td><div>True</div></td></tr><tr><td style="font-weight:bold;vertical-align:top;">session_masterapp</td><td style="vertical-align:top;">:</td><td><div>childcare</div></td></tr><tr><td style="font-weight:bold;vertical-align:top;">session_new</td><td style="vertical-align:top;">:</td><td><div>False</div></td></tr><tr><td style="font-weight:bold;vertical-align:top;">session_storage_type</td><td style="vertical-align:top;">:</td><td><div>file</div></td></tr><tr><td style="font-weight:bold;vertical-align:top;">status</td><td style="vertical-align:top;">:</td><td><div>200</div></td></tr><tr><td style="font-weight:bold;vertical-align:top;">view</td><td style="vertical-align:top;">:</td><td><div>appadmin/index.html</div></td></tr></table></div>'
tRp470
sS'locals'
p471
(dp472
S'exc'
p473
S'ProgrammingError(\'ERROR\', \'42P07\', \'relation "geolocation" already exists\')'
p474
sS'msg_class'
p475
S"<class 'gluon.contrib.pg8000.protocol.ReadyForQuery'>"
p476
sS'self'
p477
S'<gluon.contrib.pg8000.protocol.MessageReader object>'
p478
sg46
S'()'
p479
sS'handler'
p480
S'<function <lambda>>'
p481
sS'kwargs'
p482
g21
sS'msg'
p483
S'<ReadyForQuery Idle in Failed Transaction>'
p484
sS'msg_handled'
p485
S'True'
p486
sS'retval'
p487
S'1'
sssS'traceback'
p488
S'Traceback (most recent call last):\n  File "/home/www-data/web2py/gluon/restricted.py", line 217, in restricted\n    exec ccode in environment\n  File "/home/www-data/web2py/applications/childcare/models/db.py", line 66, in <module>\n    Field(\'location\', \'geometry()\')\n  File "/home/www-data/web2py/gluon/dal.py", line 7895, in define_table\n    table = self.lazy_define_table(tablename,*fields,**args)\n  File "/home/www-data/web2py/gluon/dal.py", line 7932, in lazy_define_table\n    polymodel=polymodel)\n  File "/home/www-data/web2py/gluon/dal.py", line 1002, in create_table\n    self.create_sequence_and_triggers(query,table)\n  File "/home/www-data/web2py/gluon/dal.py", line 2657, in create_sequence_and_triggers\n    self.execute(query)\n  File "/home/www-data/web2py/gluon/dal.py", line 1833, in execute\n    return self.log_execute(*a, **b)\n  File "/home/www-data/web2py/gluon/dal.py", line 1827, in log_execute\n    ret = self.cursor.execute(command, *a[1:], **b)\n  File "/home/www-data/web2py/gluon/contrib/pg8000/dbapi.py", line 246, in _fn\n    return fn(self, *args, **kwargs)\n  File "/home/www-data/web2py/gluon/contrib/pg8000/dbapi.py", line 317, in execute\n    self._execute(operation, args)\n  File "/home/www-data/web2py/gluon/contrib/pg8000/dbapi.py", line 322, in _execute\n    self.cursor.execute(new_query, *new_args)\n  File "/home/www-data/web2py/gluon/contrib/pg8000/interface.py", line 399, in execute\n    self._stmt.execute(*args, **kwargs)\n  File "/home/www-data/web2py/gluon/contrib/pg8000/interface.py", line 169, in execute\n    self._row_desc, cmd = self.c.bind(self._portal_name, self._statement_name, args, self._parse_row_desc, kwargs.get("stream"))\n  File "/home/www-data/web2py/gluon/contrib/pg8000/protocol.py", line 943, in _fn\n    return fn(self, *args, **kwargs)\n  File "/home/www-data/web2py/gluon/contrib/pg8000/protocol.py", line 1142, in bind\n    return reader.handle_messages()\n  File "/home/www-data/web2py/gluon/contrib/pg8000/protocol.py", line 911, in handle_messages\n    retval = handler(msg, *args, **kwargs)\n  File "/home/www-data/web2py/gluon/contrib/pg8000/protocol.py", line 1181, in _bind_nodata\n    reader.handle_messages()\n  File "/home/www-data/web2py/gluon/contrib/pg8000/protocol.py", line 916, in handle_messages\n    raise exc\nProgrammingError: (\'ERROR\', \'42P07\', \'relation "geolocation" already exists\')\n'
p489
s.